(dp0
VB000MS3VGA
p1
((lp2
(Vsound
p3
(lp4
Vclear
p5
aVexcellent
p6
aVgreat
p7
aVoverall
p8
aVgreat
p9
aVgreat
p10
aVbalanced
p11
aVgood
p12
aVfull
p13
aVvibrant
p14
aVgreat
p15
aVproblem
p16
aVgreat
p17
aVmediocre
p18
aVexcellent
p19
aVdecent
p20
aVgreat
p21
aVgreat
p22
aVfull
p23
aVrich
p24
aVgood
p25
aVgreat
p26
aVfantastic
p27
aVwonderful
p28
aVExcellent
p29
aVclear
p30
aVlooks
p31
aVrealistic
p32
aVbetter
p33
aVnice
p34
aVfull
p35
aVgreat
p36
aVstunning
p37
atp38
a(Vbass
p39
(lp40
VGood
p41
aVcomfortable
p42
aVgreat
p43
aVbest
p44
aVbest
p45
aVgood
p46
aVgood
p47
aVdeep
p48
aVrich
p49
aVless
p50
aVweak
p51
aVgood
p52
aVbright
p53
aVnice
p54
aVnice
p55
aVdeep
p56
aVsounds
p57
aVdeep
p58
aVgoing
p59
aVfull
p60
aVmore
p61
aVmore
p62
aVmuch
p63
aVpronounced
p64
aVheavy
p65
aVheavy
p66
aVcauses
p67
aVamazing
p68
aVstrong
p69
aVmuddy
p70
aVreminds
p71
aVworks
p72
aVsloppy
p73
aVhas
p74
aVbumped
p75
aVgood
p76
aVoverpowered
p77
aVmore
p78
aVcleaner
p79
aVcleaner
p80
aVweak
p81
aVthing
p82
atp83
a(Vquality
p84
(lp85
Vexcellent
p86
aVpoor
p87
aVsuperior
p88
aVis
p89
aVgreatest
p90
aVgreat
p91
aVbuild
p92
aVtough
p93
aVsuper
p94
aVgood
p95
aVbetter
p96
aVSound
p97
aVmediocre
p98
aVSound
p99
aVexcellent
p100
aVlower
p101
aVaudio
p102
aVreasonable
p103
aVgood
p104
aVlow
p105
aVdecent
p106
aVgreat
p107
aVgreat
p108
aVgood
p109
aVgood
p110
atp111
a(Vcord
p112
(lp113
Vcheap
p114
aVcoming
p115
aVcoming
p116
aVtorn
p117
aVsturdy
p118
aVdifferent
p119
aVlongest
p120
aVcloth
p121
aVsmaller
p122
aVseems
p123
aVfraying
p124
aVhas
p125
aVrubs
p126
aVdurable
p127
aVhas
p128
atp129
a(Vfit
p130
(lp131
Vgreat
p132
aVgood
p133
aVgood
p134
aVsnug
p135
aVsnug
p136
aVeasy
p137
aVplugs
p138
aVgreat
p139
aVsnug
p140
aVcomfortable
p141
aVcomfortable
p142
aVcomfortable
p143
atp144
a(Vpair
p145
(lp146
Vbest
p147
aVupgrade
p148
aVwore
p149
aVgreat
p150
aVthird
p151
aVbroke
p152
aVbroke
p153
aVthird
p154
aVbroke
p155
aVbad
p156
aViphone
p157
aVearlier
p158
aVhad
p159
atp160
a(Vway
p161
(lp162
Vonly
p163
aVare
p164
aVnice
p165
aVstiff
p166
aVbig
p167
aVsuch
p168
aVstay
p169
aVgood
p170
atp171
a(Vversion
p172
(lp173
Vnewer
p174
aVcheaper
p175
aVinferior
p176
aVearlier
p177
aVcheap
p178
aVupdated
p179
aVolder
p180
atp181
a(Vbass response
p182
(lp183
Vdeep
p184
aVinvigorating
p185
aVbetter
p186
aVis
p187
aVis
p188
aVlow
p189
aVmost
p190
aVgood
p191
atp192
a(Vset
p193
(lp194
Vdifferent
p195
aVgood
p196
aVgood
p197
aVsounding
p198
aVpriced
p199
aVworth
p200
aVgood
p201
aVgreat
p202
atp203
a(Vprice
p204
(lp205
Vgood
p206
aVdropped
p207
aVgreat
p208
aVgood
p209
aVexcellent
p210
aVupdated
p211
atp212
a(Vsomething
p213
(lp214
Vdurable
p215
aVis
p216
aVis
p217
aVwrong
p218
aVwrong
p219
aVbecame
p220
atp221
a(Vseal
p222
(lp223
Vbest
p224
aVgood
p225
aVgood
p226
aVcorrect
p227
aVtight
p228
atp229
a(Vissue
p230
(lp231
Vstandard
p232
aVgetting
p233
aVnoticeable
p234
aVsuch
p235
aVminor
p236
aVconstant
p237
atp238
a(Vdesign
p239
(lp240
Vresolves
p241
aVopen
p242
aVbest
p243
aVdifferent
p244
aVold
p245
aVnewer
p246
aVstrange
p247
atp248
a(Vplug
p249
(lp250
Vsleek
p251
aVripped
p252
aVweird
p253
aVangled
p254
aVis
p255
aVangled
p256
aVadd
p257
aVnice
p258
aVcurved
p259
atp260
a(Vmusic
p261
(lp262
Vrecorded
p263
aVsounds
p264
aVclear
p265
aVclassical
p266
aVclassical
p267
aVactual
p268
atp269
a(Vreason
p270
(lp271
Vmain
p272
aVquality
p273
aVis
p274
aVspecific
p275
aVgood
p276
atp277
a(Vpart
p278
(lp279
Vbetter
p280
aVmost
p281
aVmost
p282
aVanything
p283
aVworst
p284
aVis
p285
atp286
a(Vthing
p287
(lp288
Vonly
p289
aVstrange
p290
aVgood
p291
aVis
p292
atp293
a(Vuse
p294
(lp295
Vmild
p296
aVhard
p297
aVgasket
p298
aVheavy
p299
aVcasual
p300
atp301
a(Vsize
p302
(lp303
Vfits
p304
aVsmaller
p305
aVthier
p306
aVlargest
p307
atp308
a(Vpouch
p309
(lp310
Vblack
p311
aVhandy
p312
aVprotective
p313
aVprotective
p314
aVis
p315
aVcarry
p316
atp317
a(Vwarranty
p318
(lp319
Vyear
p320
aVgood
p321
aVyear
p322
aVgoes
p323
aVyear
p324
aVexpires
p325
atp326
a(Vside
p327
(lp328
Vwent
p329
aVdecreased
p330
aVcutting
p331
aVgoes
p332
atp333
a(Vjob
p334
(lp335
Vdone
p336
aVdecent
p337
aVgood
p338
atp339
a(Vbud
p340
(lp341
Vunusable
p342
aVworking
p343
aVworking
p344
atp345
a(Vcompany
p346
(lp347
Vdifferent
p348
aVcome
p349
aVdecided
p350
atp351
a(Vend
p352
(lp353
Vtragic
p354
aVlow
p355
aVlow
p356
aVstrong
p357
aVupper
p358
atp359
a(Vtime
p360
(lp361
Vsensitive
p362
aVpossible
p363
aVlimited
p364
atp365
a(Vlack
p366
(lp367
Vmakes
p368
aVslight
p369
aVbig
p370
aVhuge
p371
aVis
p372
atp373
a(Vheadphone
p374
(lp375
Vstopped
p376
aVmalfunctioning
p377
aVcheap
p378
aVlittle
p379
atp380
a(Vdriver
p381
(lp382
Vsuch
p383
aVsmall
p384
aVblown
p385
aVhit
p386
atp387
a(Vnoise
p388
(lp389
Vlittle
p390
aVescapes
p391
aVlittle
p392
aVis
p393
aVbetter
p394
aVannoying
p395
atp396
a(Vshape
p397
(lp398
Vgreat
p399
aVodd
p400
aVgood
p401
atp402
a(Vmodel
p403
(lp404
Vnewer
p405
aVredesigned
p406
aVevery
p407
aVoutdated
p408
aVfact
p409
atp410
a(Vproblem
p411
(lp412
Vbiggest
p413
aVmajor
p414
aVis
p415
aVbig
p416
atp417
a(Vproduct
p418
(lp419
Vdeserves
p420
aVGREAT
p421
aVgreat
p422
atp423
a(Vcommute
p424
(lp425
Veveryday
p426
aVgo
p427
atp428
a(Vpiece
p429
(lp430
Vsmall
p431
aVonly
p432
atp433
a(Vnone
p434
(lp435
Vfit
p436
aVgave
p437
atp438
a(Vyear
p439
(lp440
Vpast
p441
aVpast
p442
atp443
a(Vmine
p444
(lp445
Vbroke
p446
aVremote
p447
atp448
a(Vtransfer
p449
(lp450
Vannoying
p451
aVslight
p452
atp453
a(Vwiring
p454
(lp455
Vpulled
p456
aVtangle
p457
atp458
a(Vsilicon
p459
(lp460
Vsupport
p461
aVblack
p462
atp463
a(Vtouch
p464
(lp465
Vnice
p466
aVnice
p467
atp468
a(Vpackage
p469
(lp470
Ventire
p471
aVcomes
p472
atp473
a(Vsound level
p474
(lp475
Vcomparable
p476
aVstrong
p477
aVnice
p478
atp479
a(Vportion
p480
(lp481
Vgood
p482
aVlarger
p483
atp484
a(VV-Moda
p485
(lp486
Vbad
p487
aVcarry
p488
aVsounds
p489
atp490
a(Vservice
p491
(lp492
Vimpeccible
p493
aVdidnt
p494
atp495
a(Vquality.I
p496
(lp497
Vsolid
p498
aVbest
p499
aVditched
p500
atp501
a(Vvolume
p502
(lp503
Vgood
p504
aVhigher
p505
atp506
a(Vdifference
p507
(lp508
Vonly
p509
aVnoticeable
p510
atp511
a(Vcase
p512
(lp513
Vwinding
p514
aVcarrying
p515
aVleather
p516
atp517
a(VPROBLEM
p518
(lp519
VCOMMON
p520
aVIDENTICAL
p521
atp522
a(Vanything
p523
(lp524
Vhappen
p525
aVgood
p526
atp527
a(Vlistening
p528
(lp529
Vlong
p530
aVextendid
p531
atp532
a(Vear piece
p533
(lp534
Vworks
p535
aVmed
p536
aVsized
p537
aVcomfortable
p538
atp539
a(VSound
p540
(lp541
Vbroke
p542
aVis
p543
atp544
a(Vsony
p545
(lp546
Vearphones
p547
aVcheap
p548
atp549
a(Veveryone
p550
(lp551
Vmost
p552
aVelse
p553
aVcomments
p554
atp555
a(Vwire
p556
(lp557
Vplug
p558
aVstarted
p559
atp560
a(VVibe
p561
(lp562
Vbuild
p563
aVproduces
p564
atp565
a(Vmedium
p566
(lp567
Vsmall
p568
aVsmall
p569
aVlarge
p570
atp571
a(Vpurchase
p572
(lp573
VGood
p574
aVnext
p575
atp576
a(Vbit
p577
(lp578
Vis
p579
aVlittle
p580
atp581
a(Vrange
p582
(lp583
Vbetter
p584
aVoverall
p585
aVwhole
p586
atp587
a(Vdeal
p588
(lp589
Vbetter
p590
aVgreat
p591
atp592
a(Vcare
p593
(lp594
Vproper
p595
aVhas
p596
atp597
a(Vsound quality.At
p598
(lp599
Vgood
p600
atp601
a(Vrating
p602
(lp603
Vhigher
p604
atp605
a(Vlife span
p606
(lp607
Vaverage
p608
aVheadphones
p609
atp610
a(Vrock
p611
(lp612
Vvocal
p613
aVinstrumental
p614
atp615
a(Vcable manager
p616
(lp617
Vhandy
p618
atp619
a(Vrevision
p620
(lp621
Vseems
p622
atp623
a(Vmp3 player
p624
(lp625
Vtypical
p626
atp627
a(VStyle
p628
(lp629
Vare
p630
atp631
a(VDrawback
p632
(lp633
Vis
p634
atp635
a(Vboyfriend
p636
(lp637
Vhappy
p638
atp639
a(Vseat
p640
(lp641
Vsounds
p642
atp643
a(Vadvertising
p644
(lp645
Vfalse
p646
atp647
a(Vstereo plug
p648
(lp649
Vcome
p650
atp651
a(Vbass output
p652
(lp653
Vtiny
p654
atp655
a(V04/20/2012Just
p656
(lp657
Vwanted
p658
atp659
a(Vsupport
p660
(lp661
Vmore
p662
atp663
a(Vnight
p664
(lp665
Vlast
p666
atp667
a(Vcord shortener
p668
(lp669
Vis
p670
atp671
a(VTHING
p672
(lp673
VYOUR
p674
aVIS
p675
atp676
a(Vklipsch wont
p677
(lp678
Vdie
p679
atp680
a(Veverything
p681
(lp682
Vbecome
p683
atp684
a(Vrefund
p685
(lp686
Vfull
p687
atp688
a(Vwife
p689
(lp690
Vowned
p691
atp692
a(Vcolor
p693
(lp694
Vgreenish
p695
atp696
a(Vnotch
p697
(lp698
Vtop
p699
atp700
a(VBASS
p701
(lp702
Vbetter
p703
atp704
a(VSE420
p705
(lp706
VSure
p707
atp708
a(Vfatality soundcard
p709
(lp710
Vpro
p711
atp712
a(Vacccident
p713
(lp714
Vocntacted
p715
atp716
a(Vcomparison
p717
(lp718
Vis
p719
atp720
a(Vvolume.I
p721
(lp722
Vlower
p723
atp724
a(Vtreble
p725
(lp726
Vhigh
p727
aVdecent
p728
aVis
p729
atp730
a(Vresearch
p731
(lp732
Vfurther
p733
atp734
a(Vcored
p735
(lp736
Vredesigned
p737
atp738
a(Vbattery drain
p739
(lp740
Vfaster
p741
atp742
a(Vsleeve
p743
(lp744
Vpiece
p745
atp746
a(Vkit
p747
(lp748
Vwhole
p749
aVfeels
p750
atp751
a(Vresponse
p752
(lp753
Vgood
p754
atp755
a(Vcustomer service
p756
(lp757
VGreat
p758
atp759
a(Vska
p760
(lp761
Vhad
p762
atp763
a(Vsound isolation
p764
(lp765
Vgood
p766
atp767
a(Vbattery
p768
(lp769
Vsmall
p770
atp771
a(VREPAIR OR
p772
(lp773
VREPLACE
p774
atp775
a(Vspeaker
p776
(lp777
Vblew
p778
atp779
a(Veco
p780
(lp781
Vdisturbing
p782
atp783
a(Vpost office
p784
(lp785
Vopens
p786
atp787
a(Vnotch volume
p788
(lp789
Vhigher
p790
atp791
a(Vimprovement
p792
(lp793
Vdistinct
p794
atp795
a(Vannoyance
p796
(lp797
Vsmall
p798
atp799
a(Vboost
p800
(lp801
Vtreble
p802
atp803
a(Vset ive
p804
(lp805
Vbought
p806
atp807
a(VAmazon shipping
p808
(lp809
Vprime
p810
atp811
a(Vamd large.There
p812
(lp813
Vdeep
p814
atp815
a(Vover-emphasis
p816
(lp817
Vhelp
p818
atp819
a(Vamount
p820
(lp821
Vcorrect
p822
atp823
a(Vmetal casing
p824
(lp825
Vstrong
p826
atp827
a(Vthing.comfort
p828
(lp829
Vpersonal
p830
atp831
a(Vrange sound
p832
(lp833
Vpleasing
p834
aVmid
p835
atp836
a(Vpin hole
p837
(lp838
Vsingle
p839
atp840
a(Vmechanism
p841
(lp842
Vwinding
p843
atp844
a(Vfault
p845
(lp846
Vonly
p847
aVlack
p848
atp849
a(Vseller
p850
(lp851
Vselling
p852
atp853
a(Vroom
p854
(lp855
Vis
p856
atp857
a(Vfrequency response
p858
(lp859
Vnice
p860
atp861
a(Vlimitation
p862
(lp863
Vtechnical
p864
atp865
a(Vbass heavy
p866
(lp867
Vlittle
p868
atp869
a(Vchannel
p870
(lp871
Vfaded
p872
aVdie
p873
atp874
a(Vlil
p875
(lp876
Vweak
p877
atp878
a(Vpreference
p879
(lp880
Vown
p881
atp882
a(Vexplanation
p883
(lp884
Vwas
p885
atp886
a(Vwebsite
p887
(lp888
Vsays
p889
atp890
a(Vshure E2c
p891
(lp892
Vhad
p893
atp894
a(Vstore
p895
(lp896
Vlocal
p897
atp898
a(ViPod
p899
(lp900
Vseemed
p901
atp902
a(Vquality sound
p903
(lp904
Vgreat
p905
atp906
a(Vhr
p907
(lp908
Vabout
p909
atp910
a(Vactivity
p911
(lp912
Vvigorous
p913
atp914
a(Vrep
p915
(lp916
Vtold
p917
atp918
a(Vhour
p919
(lp920
Vabout
p921
atp922
a(Vjerking motion
p923
(lp924
Vwrong
p925
atp926
a(Vdefinition
p927
(lp928
Vmuch
p929
atp930
a(Vvalue
p931
(lp932
Vmuch
p933
atp934
a(Vconsideration
p935
(lp936
Vworth
p937
aVserious
p938
atp939
a(Vstereo center
p940
(lp941
Vshifted
p942
atp943
a(Vtendency
p944
(lp945
Vhorrible
p946
atp947
a(Vcrackling
p948
(lp949
Vintermittent
p950
aVwas
p951
aVslight
p952
atp953
a(Vweight
p954
(lp955
Vlight
p956
atp957
a(Vaready
p958
(lp959
Vhad
p960
atp961
a(VFit
p962
(lp963
Vvary
p964
atp965
a(Vsomeone
p966
(lp967
Vhave
p968
atp969
a(VER6i
p970
(lp971
VEtymotic
p972
atp973
a(Vbit.These
p974
(lp975
Vlittle
p976
aVcome
p977
atp978
a(Vaudio source
p979
(lp980
Vgood
p981
atp982
a(Vright channel
p983
(lp984
Vplaying
p985
atp986
a(Vdeck
p987
(lp988
Vback
p989
atp990
a(Vclose
p991
(lp992
Vdarn
p993
atp994
a(VBase
p995
(lp996
Vcrisper
p997
atp998
a(Vthough.I
p999
(lp1000
Vreturning
p1001
atp1002
a(Vearphone
p1003
(lp1004
Vstarted
p1005
atp1006
a(Vvolume level
p1007
(lp1008
Vlower
p1009
atp1010
a(Vcanal
p1011
(lp1012
Vouter
p1013
atp1014
a(Vtalking
p1015
(lp1016
Vclear
p1017
atp1018
a(Vmetal
p1019
(lp1020
Vtype
p1021
atp1022
a(VNothing
p1023
(lp1024
Vrestore
p1025
atp1026
a(Vbase
p1027
(lp1028
Venough
p1029
atp1030
a(Vdepth
p1031
(lp1032
Vsomething
p1033
atp1034
a(VTHEY
p1035
(lp1036
VSHORTED
p1037
atp1038
a(Vhairball mess
p1039
(lp1040
Vbiggest
p1041
atp1042
a(VIsolation.Great Design
p1043
(lp1044
VGood
p1045
atp1046
a(VBuy!Update
p1047
(lp1048
VExcellent
p1049
atp1050
a(Vear bud
p1051
(lp1052
Vhold
p1053
atp1054
a(Vend device
p1055
(lp1056
Vhigh
p1057
atp1058
a(Vtrade
p1059
(lp1060
Vis
p1061
atp1062
a(Videa
p1063
(lp1064
Vchosen
p1065
atp1066
a(Vtaste
p1067
(lp1068
Vmusical
p1069
atp1070
a(VAnything
p1071
(lp1072
Vgood
p1073
atp1074
a(Vmaintenance
p1075
(lp1076
Vpoor
p1077
atp1078
a(Vplace
p1079
(lp1080
Vthird
p1081
atp1082
a(Vstep
p1083
(lp1084
Vnext
p1085
aVgets
p1086
atp1087
a(Vclarity
p1088
(lp1089
VSound
p1090
aVexcellent
p1091
atp1092
a(Vmanufacture
p1093
(lp1094
Vreplaced
p1095
atp1096
a(Vsubwoofer
p1097
(lp1098
Vfilled
p1099
atp1100
a(Vheadphone jack
p1101
(lp1102
Vseems
p1103
atp1104
a(Vhigh
p1105
(lp1106
Vclear
p1107
aVprecise
p1108
aVcomes
p1109
aVmid
p1110
atp1111
a(Varea
p1112
(lp1113
Vquality
p1114
atp1115
a(Vkeyword
p1116
(lp1117
Vnatural
p1118
atp1119
a(Vmetal sheath
p1120
(lp1121
Vflexible
p1122
aVwoven
p1123
atp1124
a(VUpdate 08/13/2010I
p1125
(lp1126
Vhave
p1127
atp1128
a(Vreference I
p1129
(lp1130
VhaveCreative
p1131
atp1132
a(Vbass.Overall
p1133
(lp1134
Vheavier
p1135
atp1136
a(Velectricity
p1137
(lp1138
Vstatic
p1139
atp1140
a(V!!
p1141
(lp1142
Vready
p1143
atp1144
a(Vimage s4
p1145
(lp1146
Vklipsch
p1147
atp1148
a(Vfeature
p1149
(lp1150
Vonly
p1151
aVnice
p1152
aVis
p1153
atp1154
a(Vsoundstage
p1155
(lp1156
Vgreat
p1157
atp1158
a(VCASE
p1159
(lp1160
VWINDING
p1161
atp1162
a(VER-6i
p1163
(lp1164
VEtymotic
p1165
atp1166
a(Vquality service
p1167
(lp1168
Vcriteria
p1169
atp1170
a(Vnothing
p1171
(lp1172
Vshort
p1173
atp1174
a(Vreply
p1175
(lp1176
Vautomated
p1177
atp1178
a(Vbass experience
p1179
(lp1180
Vgreat
p1181
atp1182
a(Vcloth coating
p1183
(lp1184
Vweird
p1185
atp1186
a(Vjazz
p1187
(lp1188
Vhad
p1189
atp1190
a(Vbonus
p1191
(lp1192
Vis
p1193
atp1194
a(Vlil tube
p1195
(lp1196
Vbigger
p1197
atp1198
a(Vstrain
p1199
(lp1200
Vatypical
p1201
atp1202
a(Vconstruction
p1203
(lp1204
Vflimsy
p1205
aVheavy
p1206
atp1207
a(Vearbud
p1208
(lp1209
Vwent
p1210
atp1211
a(Vpoint?From
p1212
(lp1213
Vimportant
p1214
atp1215
a(Vcombination
p1216
(lp1217
Vmakes
p1218
atp1219
a(VEQ
p1220
(lp1221
Vadjust
p1222
atp1223
a(Vend bass
p1224
(lp1225
Vexcellent
p1226
aVlow
p1227
aVfatigue
p1228
aVsmooth
p1229
atp1230
a(Vsheath
p1231
(lp1232
Vcame
p1233
atp1234
a(Vreturn policy
p1235
(lp1236
Vliberal
p1237
atp1238
a(Vreplacement
p1239
(lp1240
Varrive
p1241
atp1242
a(Vvictory
p1243
(lp1244
Vnarrow
p1245
atp1246
a(Vequipment
p1247
(lp1248
Vscientific
p1249
atp1250
a(Vlot
p1251
(lp1252
Vawful
p1253
atp1254
a(Vmidrange
p1255
(lp1256
Vweak
p1257
aVnatural
p1258
aVsounding
p1259
atp1260
a(Vrigidity
p1261
(lp1262
Vshocking
p1263
atp1264
a(Vpain
p1265
(lp1266
Vthing
p1267
atp1268
a(Vdrop
p1269
(lp1270
Vbig
p1271
atp1272
a(Vfact
p1273
(lp1274
Vbetter
p1275
atp1276
a(Vway.Figuring
p1277
(lp1278
Vcertain
p1279
atp1280
a(Vbass vomit
p1281
(lp1282
Vloud
p1283
atp1284
a(Vduty construction
p1285
(lp1286
VHeavy
p1287
atp1288
a(Vbass stuff
p1289
(lp1290
Vheavy
p1291
atp1292
a(Vpicture
p1293
(lp1294
Vsummary
p1295
atp1296
a(Vprice.Very
p1297
(lp1298
Vdiscounted
p1299
aVabsurd
p1300
atp1301
a(Vprice option
p1302
(lp1303
Vgood
p1304
atp1305
a(Vinformation
p1306
(lp1307
Vincorrect
p1308
atp1309
a(Vinput jack
p1310
(lp1311
Vstayed
p1312
atp1313
a(Vinsulation
p1314
(lp1315
Vbraided
p1316
atp1317
a(Vrest
p1318
(lp1319
Vaverage
p1320
atp1321
a(Vdeal!Word
p1322
(lp1323
VWhat
p1324
atp1325
a(VCustomer service
p1326
(lp1327
Vdecent
p1328
atp1329
a(Vmp3 manufacture
p1330
(lp1331
Vsell
p1332
atp1333
a(Vguess
p1334
(lp1335
Vbest
p1336
atp1337
a(Vcable
p1338
(lp1339
Vtangle
p1340
atp1341
a(Vprinciple use
p1342
(lp1343
Vwatching
p1344
atp1345
a(Vthought
p1346
(lp1347
Vfinal
p1348
aVis
p1349
atp1350
a(Vperformance
p1351
(lp1352
Vterrific
p1353
atp1354
a(V.2
p1355
(lp1356
Vlow
p1357
atp1358
a(Vhighs/mid
p1359
(lp1360
Vgood
p1361
aVclear
p1362
atp1363
a(VCD
p1364
(lp1365
Vaudio
p1366
atp1367
a(VEveryone
p1368
(lp1369
Vhas
p1370
atp1371
a(Vexcuse
p1372
(lp1373
Vbreaking
p1374
atp1375
a(Vsturder
p1376
(lp1377
Vmore
p1378
atp1379
a(Vsocket
p1380
(lp1381
Vtight
p1382
aVdestroy
p1383
atp1384
a(VEQ setting
p1385
(lp1386
Vis
p1387
atp1388
a(Vpraise
p1389
(lp1390
Vuniversal
p1391
atp1392
a(Vleather
p1393
(lp1394
Vsynthetic
p1395
atp1396
a(Vbuying.they
p1397
(lp1398
Vhave
p1399
atp1400
a(VME
p1401
(lp1402
VLUCKY
p1403
atp1404
a(Vlevel sound
p1405
(lp1406
Vmid
p1407
atp1408
a(Vplayer
p1409
(lp1410
Vgood
p1411
atp1412
a(Vmini-plug
p1413
(lp1414
Vstraight
p1415
atp1416
a(Vside broke.They
p1417
(lp1418
Vinexpensive
p1419
atp1420
a(Vanyone
p1421
(lp1422
Vknows
p1423
atp1424
a(VSound Clarity
p1425
(lp1426
Vpoor
p1427
atp1428
a(Vexpense
p1429
(lp1430
Vgreat
p1431
atp1432
a(Vbuy
p1433
(lp1434
Vgreat
p1435
atp1436
a(Vcompetition
p1437
(lp1438
VSony
p1439
atp1440
a(Vmusic with.so
p1441
(lp1442
Vdissapointing
p1443
atp1444
a(Vthat.The difference
p1445
(lp1446
Vobvious
p1447
atp1448
a(Vschool
p1449
(lp1450
Vhigh
p1451
atp1452
a(Vmetal shroud
p1453
(lp1454
Vcame
p1455
atp1456
a(VBRAND
p1457
(lp1458
VCOMPETING
p1459
atp1460
a(VPhillips series
p1461
(lp1462
Vhas
p1463
atp1464
a(Vamazon
p1465
(lp1466
Vhad
p1467
atp1468
a(Vleather pouch
p1469
(lp1470
Vblack
p1471
atp1472
a(Vjudge
p1473
(lp1474
Vbest
p1475
atp1476
a(Vproblem.In summary
p1477
(lp1478
Vpotential
p1479
atp1480
a(Velephant
p1481
(lp1482
Vpink
p1483
atp1484
a(Vstyling
p1485
(lp1486
Vbetter
p1487
atp1488
a(VBoom
p1489
(lp1490
Vhad
p1491
atp1492
a(Vphone jack
p1493
(lp1494
Vbroke
p1495
atp1496
a(VBASE
p1497
(lp1498
VGREAT
p1499
atp1500
a(Vbiking
p1501
(lp1502
Vterrific
p1503
atp1504
a(VJOURNEY
p1505
(lp1506
VNEW
p1507
atp1508
a(Vsolution
p1509
(lp1510
Vcomply
p1511
atp1512
a(Vdrawer
p1513
(lp1514
Vfull
p1515
atp1516
a(Vcouple
p1517
(lp1518
Vkeep
p1519
atp1520
a(Vcomfort
p1521
(lp1522
Vproblem
p1523
atp1524
a(Vt-style plug-durability
p1525
(lp1526
VAccurate
p1527
atp1528
a(Vguitar
p1529
(lp1530
VAcoustic
p1531
atp1532
a(VEP830
p1533
(lp1534
VCreative
p1535
atp1536
a(Vear
p1537
(lp1538
Vcutting
p1539
atp1540
a(Vtrouble
p1541
(lp1542
Vmuch
p1543
atp1544
a(Vshock
p1545
(lp1546
Vgood
p1547
aVstatic
p1548
atp1549
a(Vbunch
p1550
(lp1551
Vsaid
p1552
atp1553
a(Vheadset
p1554
(lp1555
Vseveral
p1556
atp1557
a(VER-4
p1558
(lp1559
VEtymotic
p1560
atp1561
a(Vworld
p1562
(lp1563
Vis
p1564
atp1565
a(Vipod
p1566
(lp1567
Vred
p1568
atp1569
a(Vnonsense
p1570
(lp1571
Vsuch
p1572
aVproprietary
p1573
atp1574
a(Vuse.I
p1575
(lp1576
Vaudiophile
p1577
atp1578
a(Vlibrary
p1579
(lp1580
Vwhole
p1581
atp1582
a(Vbook
p1583
(lp1584
Vrecorded
p1585
atp1586
a(Vkid
p1587
(lp1588
Vgot
p1589
atp1590
a(Vjack
p1591
(lp1592
Vangled
p1593
aVtouch
p1594
atp1595
a(VBtw
p1596
(lp1597
Vbest
p1598
atp1599
a(Vfeedback
p1600
(lp1601
Vlittle
p1602
aVis
p1603
atp1604
a(Vmaterial
p1605
(lp1606
Vwoven
p1607
aVis
p1608
atp1609
a(Vpolicy
p1610
(lp1611
Vabussive
p1612
atp1613
a(VDesign
p1614
(lp1615
Vgreat
p1616
atp1617
a(Vcasing
p1618
(lp1619
Vblack
p1620
aVstarted
p1621
atp1622
a(Vplastic sheathing
p1623
(lp1624
Vway
p1625
atp1626
a(Vsmokin
p1627
(lp1628
Vskullcandy
p1629
atp1630
a(Vbetter.What
p1631
(lp1632
Vannoys
p1633
atp1634
a(Vsetting
p1635
(lp1636
Vquietest
p1637
atp1638
a(Vfear
p1639
(lp1640
Vis
p1641
atp1642
a(Vshudda
p1643
(lp1644
Vgot
p1645
atp1646
a(VBoy
p1647
(lp1648
Vhave
p1649
atp1650
a(Visolation
p1651
(lp1652
Vmuch
p1653
atp1654
a(Vcause
p1655
(lp1656
Vwire
p1657
atp1658
a(Vband
p1659
(lp1660
Vplayed
p1661
atp1662
a(Valive.Making
p1663
(lp1664
Vsure
p1665
atp1666
aL92L
tp1667
sVB000II6YEA
p1668
((lp1669
(Vsoftware
p1670
(lp1671
Vtypical
p1672
aVasks
p1673
aVgives
p1674
aVsnazzier
p1675
aVlook
p1676
aVlatest
p1677
aVbetter
p1678
aVmodern
p1679
aVgood
p1680
aVmakes
p1681
aVinstalled
p1682
aVupdated
p1683
aVhad
p1684
aVintuitive
p1685
aVeasy
p1686
aVhas
p1687
aVintuitive
p1688
aVunbelievable
p1689
aVcurrent
p1690
aVhad
p1691
atp1692
a(Vthing
p1693
(lp1694
Vwrong
p1695
aVlook
p1696
aVSecond
p1697
aVdialog
p1698
aVvery
p1699
aVonly
p1700
aVtough
p1701
aVglamour
p1702
aVironic
p1703
aVis
p1704
aVonly
p1705
aVgreat
p1706
aVeasiest
p1707
aVlooks
p1708
aVbest
p1709
aVfunction
p1710
aVhardest
p1711
atp1712
a(Vprice
p1713
(lp1714
Vagree
p1715
aVcurrent
p1716
aVgood
p1717
aVhigh
p1718
aVEXCELLENT
p1719
aVfair
p1720
aVzoomed
p1721
aVoriginal
p1722
aVretail
p1723
aVhigh
p1724
aVmakes
p1725
aVdropped
p1726
atp1727
a(Vbutton
p1728
(lp1729
Vsimple
p1730
aVcorrect
p1731
aVclose
p1732
aVstupid
p1733
aVOK
p1734
aVonscreen
p1735
aVtough
p1736
aVhard
p1737
aVfall
p1738
aVdoes
p1739
atp1740
a(Vproblem
p1741
(lp1742
Vbig
p1743
aVis
p1744
aVreal
p1745
aVis
p1746
aVfact
p1747
aVlife
p1748
aVinputs
p1749
aVis
p1750
aVfree
p1751
atp1752
a(Vtouch screen
p1753
(lp1754
Vremote
p1755
aVremote
p1756
aVnice
p1757
aVseems
p1758
aVremote
p1759
aVok
p1760
aVresponsive
p1761
aVcapacitive
p1762
aVtouching
p1763
aVolder
p1764
atp1765
a(Vdevice
p1766
(lp1767
Vlittle
p1768
aVgreat
p1769
aVsolid
p1770
aVborderline
p1771
aVusable
p1772
aVsimple
p1773
aVwrong
p1774
aVlocked
p1775
aVselect
p1776
aVoriginal
p1777
atp1778
a(Vscreen
p1779
(lp1780
Vneeds
p1781
aVbig
p1782
aVlarger
p1783
aVhas
p1784
aVsuceptible
p1785
aVbright
p1786
aVgone
p1787
atp1788
a(Vdisplay
p1789
(lp1790
Vsmaller
p1791
aVnicer
p1792
aVbright
p1793
aVclear
p1794
aVlarge
p1795
aVsucks
p1796
aVgraphical
p1797
aVGreat
p1798
atp1799
a(Vsetup
p1800
(lp1801
Vtook
p1802
aVsimple
p1803
aVinitial
p1804
aVinitial
p1805
aVeasy
p1806
aVparticular
p1807
aVautomatic
p1808
aVtake
p1809
aVstraight
p1810
aVcomplex
p1811
atp1812
a(Vcontrol
p1813
(lp1814
Voriginal
p1815
aVremote
p1816
aVremote
p1817
aVremote
p1818
aVexpensive
p1819
aVremote
p1820
aVremote
p1821
aVremote
p1822
aVfunction
p1823
aVremote
p1824
aVremote
p1825
aVhuge
p1826
aVquick
p1827
aVlimited
p1828
atp1829
a(Vtime
p1830
(lp1831
Vnext
p1832
aVlong
p1833
aVlong
p1834
aVlong
p1835
aVexceeds
p1836
atp1837
a(Vwife
p1838
(lp1839
Vhad
p1840
aVlove
p1841
aVoperate
p1842
aVwatch
p1843
aVdisliked
p1844
aVloves
p1845
atp1846
a(VTV
p1847
(lp1848
Vswitches
p1849
aVstays
p1850
aVgo
p1851
aVIs
p1852
aVon
p1853
aVIs
p1854
aVrequired
p1855
atp1856
a(Vbattery life
p1857
(lp1858
Vdecent
p1859
aVlast
p1860
aVshort
p1861
aVpoor
p1862
aVphenomenal
p1863
atp1864
a(Vproduct
p1865
(lp1866
Vmature
p1867
aVgreat
p1868
aVgreat
p1869
aVmarket
p1870
aVsuch
p1871
aVpoor
p1872
atp1873
a(Vfirmware
p1874
(lp1875
Vmajor
p1876
aVupdate
p1877
aVlatest
p1878
aVlatest
p1879
aVupdate
p1880
aVlatest
p1881
aVrefresh
p1882
atp1883
a(Vdatabase
p1884
(lp1885
Venormous
p1886
aVlarge
p1887
aVavailable
p1888
aVvast
p1889
aVvast
p1890
atp1891
a(Vway
p1892
(lp1893
Vonly
p1894
aVextender
p1895
aVdifficult
p1896
aVremote
p1897
aVis
p1898
atp1899
a(Vnothing
p1900
(lp1901
Vprepared
p1902
aVis
p1903
aVfun
p1904
aVelse
p1905
aVbad
p1906
atp1907
a(VHarmony
p1908
(lp1909
Vold
p1910
aVhad
p1911
aVlook
p1912
aVfits
p1913
aVrechargeable
p1914
aVawful
p1915
atp1916
a(Vexperience
p1917
(lp1918
Vgreat
p1919
aVbetter
p1920
aVamazing
p1921
aVgood
p1922
aVremote
p1923
atp1924
a(Vdeal
p1925
(lp1926
Vbig
p1927
aVgreat
p1928
aVbig
p1929
aVbig
p1930
atp1931
a(Vjob
p1932
(lp1933
Vsolved
p1934
aVgood
p1935
aVdone
p1936
aVdone
p1937
atp1938
a(Veverything
p1939
(lp1940
Vis
p1941
aVworking
p1942
aVwork
p1943
aVwent
p1944
atp1945
a(Vstep
p1946
(lp1947
Vsolved
p1948
aVbased
p1949
aVnext
p1950
aVwas
p1951
atp1952
a(Vactivity
p1953
(lp1954
Vcurrent
p1955
aVhas
p1956
aVcurrent
p1957
aVparticular
p1958
atp1959
a(Vtouchscreen
p1960
(lp1961
Vslow
p1962
aVbigger
p1963
aVlittle
p1964
atp1965
a(Vone
p1966
(lp1967
Vis
p1968
aVlucky
p1969
aVbuy
p1970
atp1971
a(Vconnection
p1972
(lp1973
Vslow
p1974
aVhelpful
p1975
aVmost
p1976
aVcorrect
p1977
aVdirect
p1978
atp1979
a(Vcustomer support
p1980
(lp1981
Vcrappy
p1982
aVgreat
p1983
aVinsisted
p1984
atp1985
a(Vbattery
p1986
(lp1987
Vlow
p1988
aVstay
p1989
aVoriginal
p1990
aVstarts
p1991
atp1992
a(Vyear
p1993
(lp1994
Vabout
p1995
aVover
p1996
aVabout
p1997
atp1998
a(Vuse
p1999
(lp2000
Vfaithful
p2001
aVgood
p2002
aVless
p2003
atp2004
a(Vunit
p2005
(lp2006
Vturn
p2007
aVsleek
p2008
aVbecame
p2009
atp2010
a(Videa
p2011
(lp2012
Vgood
p2013
aVgreat
p2014
aVbrilliant
p2015
aVGreat
p2016
atp2017
a(Vprogramming
p2018
(lp2019
Vtotal
p2020
aVbasic
p2021
aVall
p2022
aVactual
p2023
aVeasy
p2024
atp2025
a(Vcomplaint
p2026
(lp2027
Vbiggest
p2028
aVhave
p2029
aVbiggest
p2030
aVis
p2031
aVbiggest
p2032
atp2033
a(Vcomponent
p2034
(lp2035
Vmisses
p2036
aVelectronic
p2037
aVneeds
p2038
aVstart
p2039
atp2040
a(Vpiece
p2041
(lp2042
Vunique
p2043
aVbeautiful
p2044
aVlooking
p2045
aVonly
p2046
aVbeautiful
p2047
aVexcellent
p2048
aVknown
p2049
atp2050
a(Vcomputer
p2051
(lp2052
Vaffect
p2053
aVread
p2054
aVhooked
p2055
atp2056
a(Vversion
p2057
(lp2058
Vlatest
p2059
aVnicer
p2060
aVlatest
p2061
aVlatest
p2062
aVpoor
p2063
atp2064
a(Vsize
p2065
(lp2066
Vcorrect
p2067
aVsmall
p2068
aVmakes
p2069
aVsmall
p2070
atp2071
a(Vdesign
p2072
(lp2073
VExcellent
p2074
aVphysical
p2075
aVconceptual
p2076
aVgraphic
p2077
aVsharpened
p2078
atp2079
a(Vtrouble
p2080
(lp2081
Vmuch
p2082
aVremote
p2083
aVmuch
p2084
atp2085
a(Vline
p2086
(lp2087
Vdedicated
p2088
aVdirect
p2089
aVgood
p2090
atp2091
a(Vpurchase
p2092
(lp2093
VMOST
p2094
aVdisappointing
p2095
aVadditional
p2096
aVseperate
p2097
atp2098
a(Vset-up
p2099
(lp2100
Vsmart
p2101
aVsimple
p2102
atp2103
a(Vuser
p2104
(lp2105
Vpushes
p2106
aVknow
p2107
aVdismiss
p2108
atp2109
a(Vreason
p2110
(lp2111
Vwhole
p2112
aVcustomizability
p2113
aVis
p2114
atp2115
a(Vquality
p2116
(lp2117
Vbuild
p2118
aVhefty
p2119
aVdropped
p2120
atp2121
a(Vprogramming software
p2122
(lp2123
Vremote
p2124
aVlocked
p2125
aVwork
p2126
atp2127
a(Vextender
p2128
(lp2129
Vremote
p2130
aVremote
p2131
atp2132
a(Vresponse
p2133
(lp2134
Vtactile
p2135
aVinteresting
p2136
aVwas
p2137
atp2138
a(Vrange
p2139
(lp2140
Vperfect
p2141
aVexcellent
p2142
atp2143
a(Vprocess
p2144
(lp2145
Vworks
p2146
aVrecognizes
p2147
atp2148
a(Vday
p2149
(lp2150
Vwhole
p2151
aVNext
p2152
aVNext
p2153
aVfails
p2154
aVNext
p2155
atp2156
a(Vstation
p2157
(lp2158
Vcharging
p2159
aVcharging
p2160
aVunplugged
p2161
aVcharging
p2162
atp2163
a(Vchoice
p2164
(lp2165
Vstrange
p2166
aVwas
p2167
aVonly
p2168
aVis
p2169
atp2170
a(Vconsumer
p2171
(lp2172
Vaverage
p2173
aVbuy
p2174
atp2175
a(VLogitech support
p2176
(lp2177
Vworst
p2178
aVrecommend
p2179
atp2180
a(VSetup
p2181
(lp2182
Vbreeze
p2183
aVcomplex
p2184
atp2185
a(Vcharger
p2186
(lp2187
Vbuzzes
p2188
aVhas
p2189
atp2190
a(Vcradle
p2191
(lp2192
Vsleek
p2193
aVnext
p2194
aVcharging
p2195
atp2196
a(Vreplacement
p2197
(lp2198
Vreal
p2199
aVremote
p2200
aVimplies
p2201
aVUpdated
p2202
atp2203
a(Vsignal
p2204
(lp2205
Vweak
p2206
aVinfrared
p2207
aVreach
p2208
atp2209
a(VProgramming
p2210
(lp2211
Veasy
p2212
aVfine
p2213
atp2214
a(Vanything
p2215
(lp2216
Vhappen
p2217
aVgoes
p2218
atp2219
a(Vpressure
p2220
(lp2221
Vlittle
p2222
aVsubstantial
p2223
atp2224
a(Vfunctionality
p2225
(lp2226
Vbasic
p2227
aVmore
p2228
atp2229
a(Vcouple
p2230
(lp2231
Vlast
p2232
aVconvenient
p2233
atp2234
a(Vmonth
p2235
(lp2236
Vpast
p2237
aVabout
p2238
atp2239
a(Vsystem
p2240
(lp2241
Vcomplicated
p2242
aVmore
p2243
aVcomplex
p2244
atp2245
a(Vturn
p2246
(lp2247
Vremote
p2248
aVremote
p2249
atp2250
a(Vstyle
p2251
(lp2252
Vown
p2253
aVErgonomic
p2254
aVnice
p2255
aVeasy
p2256
atp2257
a(VMarantz receiver
p2258
(lp2259
Vhas
p2260
aVremote
p2261
atp2262
a(Vhand
p2263
(lp2264
Velongated
p2265
aVremote
p2266
aVsteadiest
p2267
atp2268
a(Vcustom
p2269
(lp2270
Vbuilt
p2271
aVplain
p2272
atp2273
a(Vvolume
p2274
(lp2275
Vrunaway
p2276
aVhigh
p2277
aVtakes
p2278
atp2279
a(Vhelp button
p2280
(lp2281
Vblaster
p2282
aVGIANT
p2283
atp2284
a(Vcycle
p2285
(lp2286
Vtakes
p2287
aVis
p2288
atp2289
a(Vinterface
p2290
(lp2291
Vhorrible
p2292
aVsimpler
p2293
atp2294
a(Vanyone
p2295
(lp2296
Vwant
p2297
aVpost
p2298
atp2299
a(VRF extender
p2300
(lp2301
Vdevice
p2302
aVremote
p2303
atp2304
a(Vinstaller
p2305
(lp2306
Vhosed
p2307
aVprofessional
p2308
atp2309
a(Vside
p2310
(lp2311
Vplus
p2312
aVnegative
p2313
atp2314
a(Vlearning curve
p2315
(lp2316
Vsmall
p2317
atp2318
a(Vclicker
p2319
(lp2320
Vdo
p2321
atp2322
a(Vdialog
p2323
(lp2324
Vmodal
p2325
atp2326
a(Vswitch b
p2327
(lp2328
Vswitch
p2329
atp2330
a(VremoteI
p2331
(lp2332
Vspent
p2333
atp2334
a(Vpart
p2335
(lp2336
Vgood
p2337
aVis
p2338
aVsimple
p2339
atp2340
a(Vbonus
p2341
(lp2342
Vadded
p2343
atp2344
a(Vpurpose computer
p2345
(lp2346
Vgeneral
p2347
atp2348
a(Vcolor screen
p2349
(lp2350
Vnice
p2351
atp2352
a(Vdigit code
p2353
(lp2354
Vambiguous
p2355
atp2356
a(VMONEY
p2357
(lp2358
VWORTH
p2359
atp2360
a(Vdock
p2361
(lp2362
Vrecharging
p2363
atp2364
a(Venjoyment
p2365
(lp2366
Vdepends
p2367
atp2368
a(Vlevel support
p2369
(lp2370
VSecond
p2371
aVindicated
p2372
atp2373
a(Vhome system
p2374
(lp2375
Vfunction
p2376
atp2377
a(Vapplication
p2378
(lp2379
Vreported
p2380
atp2381
a(Vunderstanding
p2382
(lp2383
Vlimited
p2384
atp2385
a(Vthinking
p2386
(lp2387
Vcritical
p2388
atp2389
a(VHELP menu
p2390
(lp2391
Veasy
p2392
aVaccuracy
p2393
atp2394
a(Vpad
p2395
(lp2396
Vdirectional
p2397
atp2398
a(Vdownside
p2399
(lp2400
Vgreatest
p2401
aVinstallation
p2402
atp2403
a(Vaim
p2404
(lp2405
Vdirect
p2406
atp2407
a(Vmess.Not
p2408
(lp2409
Vconfusing
p2410
atp2411
a(Vchange
p2412
(lp2413
Vbiggest
p2414
aVinterface
p2415
atp2416
a(Vweb site
p2417
(lp2418
Vobscure
p2419
atp2420
a(VWeb software
p2421
(lp2422
Vonline
p2423
aVpretty
p2424
atp2425
a(Vhardware
p2426
(lp2427
Vgreat
p2428
atp2429
a(Vprice.This
p2430
(lp2431
Vremote
p2432
atp2433
a(Vimplementation
p2434
(lp2435
Vflawed
p2436
aVinterface
p2437
atp2438
a(VRebate
p2439
(lp2440
Vscam
p2441
atp2442
a(Vcritical.One downside
p2443
(lp2444
Vimportant
p2445
atp2446
a(VANOTHER firmware
p2447
(lp2448
Vmajor
p2449
aVupdate
p2450
atp2451
a(VUPC code
p2452
(lp2453
Voriginal
p2454
atp2455
a(Vamount
p2456
(lp2457
Vtremendous
p2458
atp2459
a(Vwindows.To
p2460
(lp2461
Vbegin
p2462
atp2463
a(Vsequence
p2464
(lp2465
Vproper
p2466
atp2467
a(Vreview
p2468
(lp2469
Vseparate
p2470
aVnegative
p2471
atp2472
a(Vsyndrome.Customer support
p2473
(lp2474
Vcarpal
p2475
atp2476
a(VHDMI input
p2477
(lp2478
Vcorrect
p2479
atp2480
a(Vserver
p2481
(lp2482
Vsaves
p2483
atp2484
a(Vcommands.I
p2485
(lp2486
Vsimple
p2487
aVfriendly
p2488
atp2489
a(Vafternoon
p2490
(lp2491
Ventire
p2492
atp2493
a(Vposter
p2494
(lp2495
Vearlier
p2496
aVpointed
p2497
atp2498
a(Vchannel line-up
p2499
(lp2500
Vcomplete
p2501
atp2502
a(Vminutes.I
p2503
(lp2504
Vhad
p2505
atp2506
a(Vshut-down action
p2507
(lp2508
Vadditional
p2509
atp2510
a(VHELP button
p2511
(lp2512
Vconvenient
p2513
aVis
p2514
atp2515
a(Vsensitive.I
p2516
(lp2517
Vlove
p2518
atp2519
a(Vnatural
p2520
(lp2521
Vworks
p2522
atp2523
a(VHarmony back
p2524
(lp2525
Vnamed
p2526
aVuniversal
p2527
aVremote
p2528
atp2529
a(Vcapability
p2530
(lp2531
Vamazing
p2532
atp2533
a(Vprojector
p2534
(lp2535
Vrequires
p2536
aVdevice
p2537
atp2538
a(Vloading cradle
p2539
(lp2540
Vprovided
p2541
atp2542
a(Vpurpose
p2543
(lp2544
Vlimited
p2545
atp2546
a(Vutility
p2547
(lp2548
Vcheck
p2549
atp2550
a(Vangle
p2551
(lp2552
Vsteep
p2553
aVrelative
p2554
atp2555
a(VVista download
p2556
(lp2557
Vgo
p2558
atp2559
a(VPVR
p2560
(lp2561
Vcrappy
p2562
atp2563
a(Vorder
p2564
(lp2565
Vexact
p2566
atp2567
a(Vweight
p2568
(lp2569
Vlight
p2570
atp2571
a(Vchair
p2572
(lp2573
Vfavorite
p2574
atp2575
a(VSetup software
p2576
(lp2577
Vwork
p2578
atp2579
a(VreceiverThe touchscreen
p2580
(lp2581
VprojectorPanasonic
p2582
aVPlasmaDish
p2583
aVreceiverDish
p2584
aVclear
p2585
atp2586
a(Vconversation gadget
p2587
(lp2588
Vnice
p2589
atp2590
a(Vtelevision
p2591
(lp2592
Vknow
p2593
atp2594
a(VPC database
p2595
(lp2596
Vaccessible
p2597
atp2598
a(Vcomputer programmer
p2599
(lp2600
Vprofessional
p2601
atp2602
a(Vmarantz
p2603
(lp2604
Vhas
p2605
aVremote
p2606
atp2607
a(Vreaction
p2608
(lp2609
Vbeen
p2610
atp2611
a(Vadvantage
p2612
(lp2613
Vonly
p2614
aVreal
p2615
aVdisplay
p2616
atp2617
a(Vreboot
p2618
(lp2619
Voccasional
p2620
atp2621
a(Vrisk
p2622
(lp2623
Vunnecessary
p2624
aVaccessible
p2625
atp2626
a(Vimpression
p2627
(lp2628
Vwas
p2629
atp2630
a(Vtry
p2631
(lp2632
Vmore
p2633
atp2634
a(Vstash
p2635
(lp2636
Vsecret
p2637
atp2638
a(VHarmony had.If
p2639
(lp2640
Vold
p2641
atp2642
a(Vcall
p2643
(lp2644
Vconfirmed
p2645
atp2646
a(VPart
p2647
(lp2648
Vme
p2649
atp2650
a(VPDA look
p2651
(lp2652
Vmean
p2653
atp2654
a(Vtask
p2655
(lp2656
Vsimple
p2657
atp2658
a(Vactivity setup
p2659
(lp2660
Vinitial
p2661
atp2662
a(Vpercentage
p2663
(lp2664
Vhigher
p2665
aVis
p2666
atp2667
a(Vsecurity software
p2668
(lp2669
Vaftermarket
p2670
atp2671
a(VRF feature
p2672
(lp2673
Vallows
p2674
aVrequires
p2675
atp2676
a(Vthumb
p2677
(lp2678
Vspot
p2679
atp2680
a(Vhour
p2681
(lp2682
Vabout
p2683
aVhalf
p2684
atp2685
a(VDVR
p2686
(lp2687
Vcontinues
p2688
atp2689
a(Vinstallation program
p2690
(lp2691
Vwas
p2692
atp2693
a(VDOWN
p2694
(lp2695
Vremote
p2696
atp2697
a(Vengineering
p2698
(lp2699
Vindustrial
p2700
atp2701
a(Vlack
p2702
(lp2703
Vdisappointing
p2704
atp2705
a(Vlife
p2706
(lp2707
Vdecent
p2708
atp2709
a(Vnight
p2710
(lp2711
Vlong
p2712
atp2713
a(Vattention
p2714
(lp2715
Vmuch
p2716
atp2717
a(VAA
p2718
(lp2719
Vmore
p2720
atp2721
a(Vrebate
p2722
(lp2723
Vwas
p2724
atp2725
a(Veye device
p2726
(lp2727
Vsweet
p2728
aVcatching
p2729
atp2730
a(Vaway.There
p2731
(lp2732
Vcomplaints
p2733
atp2734
a(Vquestion
p2735
(lp2736
Vsounded
p2737
atp2738
a(Vcontrol device
p2739
(lp2740
VBest
p2741
aVremote
p2742
atp2743
a(Vshield
p2744
(lp2745
Vinvisible
p2746
atp2747
a(Vright
p2748
(lp2749
Vremote
p2750
atp2751
a(Vbutton layout
p2752
(lp2753
Vgood
p2754
atp2755
a(Vshipping
p2756
(lp2757
Vfree
p2758
atp2759
a(Vcable
p2760
(lp2761
VUSB
p2762
atp2763
a(VNyco receiver
p2764
(lp2765
Voptional
p2766
aVInfrared
p2767
atp2768
a(VList
p2769
(lp2770
Vabsent
p2771
atp2772
a(Vperformance
p2773
(lp2774
Vterrible
p2775
atp2776
a(Vbattery removal
p2777
(lp2778
Vsolves
p2779
atp2780
a(VHarmony software
p2781
(lp2782
Vinstalled
p2783
aVoriginal
p2784
aVfailing
p2785
aVlet
p2786
aVinstall
p2787
atp2788
a(VHDTV system
p2789
(lp2790
Volder
p2791
atp2792
a(Vapple keys.I
p2793
(lp2794
Voriginal
p2795
aVremote
p2796
atp2797
a(Vplasma TV
p2798
(lp2799
Vinputted
p2800
atp2801
a(Vcomputer software
p2802
(lp2803
Vclunky
p2804
atp2805
a(VPrice
p2806
(lp2807
Vcoming
p2808
atp2809
a(Vwizard
p2810
(lp2811
Vset
p2812
aVget
p2813
atp2814
a(Vindication
p2815
(lp2816
Vwas
p2817
atp2818
a(VHelp function
p2819
(lp2820
Vfix
p2821
atp2822
a(Vresponsive.Second
p2823
(lp2824
Vmore
p2825
atp2826
a(Vdeparture
p2827
(lp2828
Vstark
p2829
atp2830
a(Vpractice
p2831
(lp2832
Vlittle
p2833
atp2834
a(Vtechnician
p2835
(lp2836
Vtelling
p2837
atp2838
a(Vhiccup
p2839
(lp2840
Vonly
p2841
atp2842
a(Vport
p2843
(lp2844
VUSB
p2845
aVUSB
p2846
aVUSB
p2847
atp2848
a(Vright.I
p2849
(lp2850
Vbetter
p2851
atp2852
a(VYamaha Y-4000
p2853
(lp2854
Vseems
p2855
atp2856
a(Vwonder
p2857
(lp2858
Vlittle
p2859
atp2860
a(Vamazon
p2861
(lp2862
Vimplies
p2863
atp2864
a(Vpackaging
p2865
(lp2866
VNice
p2867
atp2868
a(Vstate technology
p2869
(lp2870
Vlet
p2871
atp2872
a(Vprogram
p2873
(lp2874
Vfriendly
p2875
atp2876
a(Vvolume control
p2877
(lp2878
Vdifficult
p2879
atp2880
a(Vdisc icon
p2881
(lp2882
Vtop
p2883
atp2884
a(Vquirk
p2885
(lp2886
Vshows
p2887
atp2888
a(VRay player
p2889
(lp2890
Vturns
p2891
atp2892
a(Vreplacement battery
p2893
(lp2894
Voriginal
p2895
atp2896
a(Vpile
p2897
(lp2898
Vgrowing
p2899
atp2900
a(Vrf feature
p2901
(lp2902
Vdownside
p2903
atp2904
a(Vadapter
p2905
(lp2906
VUSB
p2907
atp2908
a(Vitem
p2909
(lp2910
VGreat
p2911
atp2912
a(Vdescription
p2913
(lp2914
Vonline
p2915
aVonline
p2916
atp2917
a(Vnews
p2918
(lp2919
Vgood
p2920
aVtime
p2921
atp2922
a(Vmodel
p2923
(lp2924
Volder
p2925
atp2926
a(Vbuttons-Easy
p2927
(lp2928
Vphysical
p2929
atp2930
a(VIR
p2931
(lp2932
Vcommands
p2933
atp2934
a(Vextender.And
p2935
(lp2936
Vstate
p2937
atp2938
a(Vcomment
p2939
(lp2940
Vfinal
p2941
aVlife
p2942
atp2943
a(VPITA
p2944
(lp2945
Vreal
p2946
atp2947
a(Vswitch
p2948
(lp2949
Vends
p2950
atp2951
a(VLogitech database
p2952
(lp2953
Vspotty
p2954
atp2955
a(Vlogitech
p2956
(lp2957
Vkeeps
p2958
atp2959
a(Vsimplicity
p2960
(lp2961
Vwonderful
p2962
atp2963
a(V*
p2964
(lp2965
Vnice
p2966
aVtake
p2967
atp2968
a(Vinnovation
p2969
(lp2970
Vpast
p2971
atp2972
a(Vplus
p2973
(lp2974
Vreal
p2975
atp2976
a(Vsetup software
p2977
(lp2978
Vdoing
p2979
atp2980
a(Vlayout
p2981
(lp2982
Vintuitive
p2983
atp2984
a(Vcontrolling
p2985
(lp2986
Vhanded
p2987
aVremote
p2988
atp2989
a(Vsound
p2990
(lp2991
Vcome
p2992
atp2993
a(Vbuttons.Fantastic database
p2994
(lp2995
Vsoft
p2996
atp2997
a(Vneed
p2998
(lp2999
Vemotional
p3000
atp3001
a(Vmanual
p3002
(lp3003
Vgood
p3004
atp3005
a(Vsuccess
p3006
(lp3007
Vhuge
p3008
atp3009
a(Vcon
p3010
(lp3011
Vonly
p3012
atp3013
a(Vamp
p3014
(lp3015
VIs
p3016
atp3017
a(Vreceiver
p3018
(lp3019
Vturn
p3020
aVswitches
p3021
aVswitches
p3022
atp3023
a(VtimeI
p3024
(lp3025
Vmanual
p3026
aVmade
p3027
atp3028
a(Vright disc
p3029
(lp3030
Vtop
p3031
atp3032
a(Vdust
p3033
(lp3034
Vcollecting
p3035
atp3036
a(Vinput
p3037
(lp3038
Vlast
p3039
aVused
p3040
atp3041
a(Vprofile
p3042
(lp3043
Vslim
p3044
atp3045
a(VTV set
p3046
(lp3047
VIs
p3048
atp3049
a(Vgrip
p3050
(lp3051
Vbetter
p3052
atp3053
a(Vgame
p3054
(lp3055
Vmost
p3056
atp3057
a(Vmajority
p3058
(lp3059
Vvast
p3060
aVregarding
p3061
atp3062
a(Vsetting
p3063
(lp3064
Vlast
p3065
atp3066
a(Vdraw
p3067
(lp3068
Vonly
p3069
atp3070
a(VUPC
p3071
(lp3072
Vis
p3073
atp3074
a(VHarmony screen
p3075
(lp3076
Vinstructs
p3077
atp3078
a(VCD player
p3079
(lp3080
Vmulti
p3081
atp3082
a(Vhead
p3083
(lp3084
Vlittle
p3085
atp3086
a(Vtogether.I
p3087
(lp3088
Vpleased
p3089
atp3090
a(VBEST bet
p3091
(lp3092
Vwas
p3093
atp3094
a(Vha
p3095
(lp3096
Vdone
p3097
atp3098
a(Vharmony
p3099
(lp3100
Vdo
p3101
atp3102
a(VIssue
p3103
(lp3104
VPrimary
p3105
atp3106
a(Vplay
p3107
(lp3108
Vstop
p3109
atp3110
a(Vcardboard UPC
p3111
(lp3112
Vheavy
p3113
atp3114
a(Vnano delay
p3115
(lp3116
Vslight
p3117
atp3118
a(Vretailer
p3119
(lp3120
Vmajor
p3121
atp3122
a(Vsound projector
p3123
(lp3124
Vdigital
p3125
atp3126
a(Vcombo
p3127
(lp3128
Vperfect
p3129
atp3130
a(Vvol
p3131
(lp3132
Vblue
p3133
aVetched
p3134
atp3135
a(Vcolor
p3136
(lp3137
Vchrome
p3138
atp3139
a(Vnone
p3140
(lp3141
Vsimple
p3142
atp3143
a(VPC software
p3144
(lp3145
Vupdated
p3146
atp3147
a(Veffect
p3148
(lp3149
Vfull
p3150
atp3151
a(Vprint
p3152
(lp3153
Vfine
p3154
atp3155
a(Vsuggestion
p3156
(lp3157
Vofficial
p3158
atp3159
a(Vbutton response
p3160
(lp3161
Vslower
p3162
atp3163
a(Vremote.The thing
p3164
(lp3165
Vwhole
p3166
atp3167
a(Vsettings thoughWhat
p3168
(lp3169
Vkey
p3170
atp3171
a(VH1000
p3172
(lp3173
Vdevice
p3174
aVcombines
p3175
aVappears
p3176
atp3177
a(Vwork
p3178
(lp3179
Vadded
p3180
atp3181
a(Vassumptions section
p3182
(lp3183
Vprominent
p3184
atp3185
a(Vhill.Thank GAWD
p3186
(lp3187
Vsteep
p3188
atp3189
a(Vsurprise
p3190
(lp3191
Vnice
p3192
atp3193
a(Vupgrade
p3194
(lp3195
Vperfect
p3196
atp3197
a(Vhalf
p3198
(lp3199
Vonly
p3200
aVexpensive
p3201
atp3202
a(Vvoice
p3203
(lp3204
Vsounded
p3205
atp3206
a(Vfamily
p3207
(lp3208
Vloved
p3209
atp3210
a(Vgrasp
p3211
(lp3212
Vbasic
p3213
aVof
p3214
atp3215
a(Vcompany
p3216
(lp3217
Vresponsive
p3218
atp3219
a(Vseries
p3220
(lp3221
Vshort
p3222
atp3223
a(Vsomething
p3224
(lp3225
Vheavy
p3226
atp3227
a(Vcontroller
p3228
(lp3229
Vsingle
p3230
atp3231
a(Vdeal.Overall
p3232
(lp3233
Vbig
p3234
atp3235
a(Vfeel
p3236
(lp3237
Vlight
p3238
atp3239
a(Vmorning
p3240
(lp3241
Vfollowing
p3242
atp3243
a(Vcord
p3244
(lp3245
VUSB
p3246
atp3247
a(Vdifference
p3248
(lp3249
VWhat
p3250
atp3251
a(Vaddress
p3252
(lp3253
Vconsuming
p3254
atp3255
a(Vpackage
p3256
(lp3257
Vslick
p3258
atp3259
a(VMX3000
p3260
(lp3261
Vremote
p3262
atp3263
a(Vbattery technology
p3264
(lp3265
Vexisting
p3266
atp3267
a(Vnow.I
p3268
(lp3269
Vsee
p3270
atp3271
a(Vpatient
p3272
(lp3273
Vpretty
p3274
atp3275
a(Vonline
p3276
(lp3277
Vremote
p3278
atp3279
a(Vconsensus
p3280
(lp3281
Vremote
p3282
atp3283
a(Vmode
p3284
(lp3285
VUSB
p3286
atp3287
a(Vshow
p3288
(lp3289
Vfavourite
p3290
atp3291
a(Vanswer
p3292
(lp3293
Vgood
p3294
atp3295
a(Vheadache
p3296
(lp3297
Vbig
p3298
atp3299
a(VRF icon
p3300
(lp3301
Vcome
p3302
atp3303
a(Vexplanation
p3304
(lp3305
Vwas
p3306
atp3307
a(Vlayout design.A
p3308
(lp3309
Vintelligent
p3310
atp3311
a(Vscene
p3312
(lp3313
Vnext
p3314
atp3315
a(VMODE
p3316
(lp3317
VSAFE
p3318
atp3319
a(Vtoy
p3320
(lp3321
Vdead
p3322
atp3323
a(Vbasis
p3324
(lp3325
Vdaily
p3326
atp3327
a(Vchannel
p3328
(lp3329
Vend
p3330
atp3331
a(Vandbeautiful
p3332
(lp3333
Vbig
p3334
aVbright
p3335
atp3336
a(Vpenny.Software
p3337
(lp3338
Vpretty
p3339
atp3340
a(Vdisk utility
p3341
(lp3342
Vopen
p3343
atp3344
a(Vtrack
p3345
(lp3346
Vremote
p3347
aVlosing
p3348
atp3349
a(Vdiode
p3350
(lp3351
Vlittle
p3352
aVstuck
p3353
atp3354
a(Vvalue
p3355
(lp3356
Vgood
p3357
atp3358
a(Vcost
p3359
(lp3360
Ventire
p3361
atp3362
a(VTruth
p3363
(lp3364
Vis
p3365
atp3366
a(Vaddition
p3367
(lp3368
Voverall
p3369
aVgreat
p3370
atp3371
a(VLogitech product
p3372
(lp3373
Vunable
p3374
atp3375
a(Vperson
p3376
(lp3377
Vnormal
p3378
atp3379
a(VSearching online
p3380
(lp3381
Vturned
p3382
atp3383
a(Vstereo configuration.Lastly
p3384
(lp3385
Vefficient
p3386
atp3387
a(Vdesktop application
p3388
(lp3389
Vcompatible
p3390
atp3391
a(Vworkhorse
p3392
(lp3393
Vgood
p3394
atp3395
a(Vbutton Volume
p3396
(lp3397
Vhard
p3398
aVhard
p3399
atp3400
a(Vmedia system
p3401
(lp3402
Vcomplex
p3403
atp3404
a(Vdevice anywhere.This
p3405
(lp3406
Vsaid
p3407
atp3408
a(Vimprovement
p3409
(lp3410
Vamazing
p3411
atp3412
a(Vsubmenu
p3413
(lp3414
Vtiny
p3415
atp3416
a(Valuminum finish
p3417
(lp3418
Vbrushed
p3419
atp3420
a(Veffort
p3421
(lp3422
Vlittle
p3423
atp3424
a(Verror
p3425
(lp3426
Vodd
p3427
aVgrammatical
p3428
atp3429
a(Vfix
p3430
(lp3431
Vnominal
p3432
aVdrops
p3433
atp3434
a(Vtheater system
p3435
(lp3436
Vcomplex
p3437
atp3438
a(VTHOUGHT
p3439
(lp3440
Vcool
p3441
atp3442
a(Vservice
p3443
(lp3444
Vpoor
p3445
atp3446
a(Vsetup system
p3447
(lp3448
Vcomplex
p3449
atp3450
a(Vconcept
p3451
(lp3452
Vgood
p3453
atp3454
a(Vstand
p3455
(lp3456
Vcharging
p3457
aVhandy
p3458
atp3459
a(Vpuppy
p3460
(lp3461
Vslides
p3462
atp3463
a(Vcontent
p3464
(lp3465
Vsubstantial
p3466
atp3467
a(Vcamper
p3468
(lp3469
Vhappy
p3470
atp3471
a(Vcable box
p3472
(lp3473
Vturns
p3474
atp3475
a(Venvironment
p3476
(lp3477
Vpowerful
p3478
aVis
p3479
atp3480
a(Varea
p3481
(lp3482
Vwrong
p3483
atp3484
a(Vsailing
p3485
(lp3486
VSMOOTH
p3487
atp3488
a(VNone
p3489
(lp3490
Vcode
p3491
atp3492
a(Vobjective
p3493
(lp3494
Vis
p3495
atp3496
a(Vproduct execution
p3497
(lp3498
Vsingle
p3499
aVworse
p3500
atp3501
a(Vflexibility
p3502
(lp3503
Vtremendous
p3504
atp3505
a(VGiz Wiz
p3506
(lp3507
Vloved
p3508
atp3509
a(Vinfo online
p3510
(lp3511
Vremote
p3512
atp3513
a(Vproduct CONCEPT
p3514
(lp3515
Vone
p3516
atp3517
a(Vmanufacturing cost
p3518
(lp3519
Vraw
p3520
atp3521
a(Vtablet
p3522
(lp3523
Vcheap
p3524
atp3525
a(Vsense
p3526
(lp3527
Vcommon
p3528
atp3529
a(VKinda
p3530
(lp3531
Vfizzles
p3532
atp3533
a(Vrebate offer
p3534
(lp3535
Vlatest
p3536
atp3537
a(Vcheck
p3538
(lp3539
Vdouble
p3540
atp3541
a(Vprograming
p3542
(lp3543
VBasic
p3544
aVsimple
p3545
atp3546
a(Vrap
p3547
(lp3548
Vbad
p3549
atp3550
a(Vrock
p3551
(lp3552
Vdoes
p3553
atp3554
a(VNetwork receiver
p3555
(lp3556
Vcontrollable
p3557
atp3558
a(Vrelease
p3559
(lp3560
Vnext
p3561
atp3562
a(Vconstant
p3563
(lp3564
Vonly
p3565
aVsupport
p3566
atp3567
a(Vpress
p3568
(lp3569
VWatch
p3570
atp3571
a(Vinclination
p3572
(lp3573
Vis
p3574
atp3575
a(Vsoftware/firmware
p3576
(lp3577
Vdo
p3578
atp3579
a(Vlistening
p3580
(lp3581
Vremote
p3582
atp3583
a(Vproduct saver
p3584
(lp3585
Vreal
p3586
atp3587
a(VA freedom
p3588
(lp3589
Vmore
p3590
atp3591
a(Vkind
p3592
(lp3593
Vexpensive
p3594
aVremote
p3595
aVused
p3596
atp3597
a(Vstand MUCH
p3598
(lp3599
Vcharging
p3600
aVbetter
p3601
atp3602
a(Vuser interface
p3603
(lp3604
Veasy
p3605
atp3606
a(Vneeds.An quirk
p3607
(lp3608
Vannoying
p3609
atp3610
a(Vreview.First
p3611
(lp3612
Vfair
p3613
atp3614
a(Vexpert server
p3615
(lp3616
Vbuggy
p3617
atp3618
a(Vresult
p3619
(lp3620
Vdesired
p3621
atp3622
a(Vbutton problem
p3623
(lp3624
Vis
p3625
atp3626
a(Vtech support
p3627
(lp3628
Vgood
p3629
aVbest
p3630
atp3631
a(Vremotesbattery
p3632
(lp3633
Vrecharge
p3634
atp3635
a(Vsolution
p3636
(lp3637
Vonly
p3638
atp3639
a(Vleary
p3640
(lp3641
Vlittle
p3642
atp3643
a(Vfirmware.Set
p3644
(lp3645
Vrecent
p3646
atp3647
a(Vlight
p3648
(lp3649
Vdim
p3650
atp3651
a(V* time
p3652
(lp3653
Vremote
p3654
atp3655
a(Vinput/output
p3656
(lp3657
Vincorrect
p3658
aVask
p3659
atp3660
a(Veveryone
p3661
(lp3662
Vown
p3663
atp3664
a(Vgift
p3665
(lp3666
Vearly
p3667
atp3668
a(Vtheater environment
p3669
(lp3670
Vcomplex
p3671
atp3672
a(Vtouch screen2
p3673
(lp3674
Vcapacitive
p3675
atp3676
a(Vnightmare
p3677
(lp3678
Vbegins
p3679
atp3680
a(Vtouch screen.Hard
p3681
(lp3682
VDifficult
p3683
aVinitial
p3684
atp3685
a(VSirius radio
p3686
(lp3687
Vcontrollable
p3688
atp3689
a(Vissue
p3690
(lp3691
Vlast
p3692
aVremaining
p3693
atp3694
a(VRF transmitter
p3695
(lp3696
Vstops
p3697
atp3698
a(VHTPC
p3699
(lp3700
Vhas
p3701
atp3702
a(Vbackground
p3703
(lp3704
Vnetworking
p3705
atp3706
a(Vability
p3707
(lp3708
Vgreat
p3709
atp3710
a(Vdate
p3711
(lp3712
Vactual
p3713
aVapproaching
p3714
atp3715
a(Vstate/setting
p3716
(lp3717
Vcorrect
p3718
atp3719
a(Vsomething.The reason
p3720
(lp3721
Vmissing
p3722
atp3723
a(Vtime process
p3724
(lp3725
Vconsuming
p3726
aVtedious
p3727
atp3728
a(Vstart
p3729
(lp3730
Vgreat
p3731
atp3732
a(Vforward.Logitech
p3733
(lp3734
Vstraight
p3735
atp3736
a(Vcomplex
p3737
(lp3738
Vlittle
p3739
atp3740
a(Vtime experiment
p3741
(lp3742
Vconuming
p3743
aVis
p3744
atp3745
a(V4665F screen
p3746
(lp3747
Vflat
p3748
atp3749
a(Vlook
p3750
(lp3751
Vclassy
p3752
atp3753
a(Vdocumentation
p3754
(lp3755
Vis
p3756
atp3757
a(Vconversation
p3758
(lp3759
Vlong
p3760
atp3761
a(VLogitech.My problem
p3762
(lp3763
Vmain
p3764
atp3765
a(VExtenderIn conclusion
p3766
(lp3767
Vuseful
p3768
atp3769
a(Vexpectation
p3770
(lp3771
Vwrong
p3772
atp3773
a(Vmacro setup.Other
p3774
(lp3775
Vspecial
p3776
atp3777
a(Vadapter-Has database
p3778
(lp3779
Vextensive
p3780
aVInfrared
p3781
aVUSB
p3782
atp3783
a(Vcommand names-Doesn
p3784
(lp3785
Vremote
p3786
aVtruncating
p3787
aVcome
p3788
atp3789
a(Vrebate status
p3790
(lp3791
Vinvalid
p3792
atp3793
a(Vpolicy
p3794
(lp3795
Vis
p3796
atp3797
a(VDVD player
p3798
(lp3799
Vworking
p3800
atp3801
a(Vdisappointment
p3802
(lp3803
Vsmall
p3804
atp3805
a(Vstar icon
p3806
(lp3807
Vtop
p3808
aVbottom
p3809
aVsmall
p3810
aVbottom
p3811
aVbrings
p3812
atp3813
a(Vremoval
p3814
(lp3815
Vnecessitating
p3816
atp3817
a(Vform
p3818
(lp3819
Vsimple
p3820
atp3821
a(Vforce
p3822
(lp3823
Vcreative
p3824
atp3825
a(Vtouch-screen
p3826
(lp3827
Vcapacitive
p3828
atp3829
a(Vluck
p3830
(lp3831
Vbetter
p3832
atp3833
a(Vson
p3834
(lp3835
Vold
p3836
aVuses
p3837
atp3838
aL83L
tp3839
sVB000CS1TLE
p3840
((lp3841
(Vsoftware
p3842
(lp3843
Vwilling
p3844
aVprompted
p3845
aVonline
p3846
aVbasic
p3847
aVhas
p3848
aVhave
p3849
aVstarts
p3850
aVcapable
p3851
aVbit
p3852
aVperforms
p3853
aVeasy
p3854
aVaccompanying
p3855
aVpain
p3856
aVbuggy
p3857
aVlatest
p3858
aVguide
p3859
aVset
p3860
aVpoor
p3861
aVwork
p3862
aVlatest
p3863
aVrecognized
p3864
aVworked
p3865
aVimproved
p3866
aVbuggy
p3867
aVremote
p3868
aVclunky
p3869
aVwants
p3870
atp3871
a(Vthing
p3872
(lp3873
Vgreat
p3874
aVtaken
p3875
aVDOA
p3876
aVnext
p3877
aVis
p3878
aVgood
p3879
aVneed
p3880
aVwhole
p3881
aVsliver
p3882
aVonly
p3883
aVwhole
p3884
aVonly
p3885
aVFirst
p3886
aVis
p3887
aVeasy
p3888
aVworked
p3889
aVonly
p3890
aVis
p3891
aVno
p3892
aVmake
p3893
aVbad
p3894
aVmake
p3895
aVonly
p3896
atp3897
a(Vsetup
p3898
(lp3899
Vtook
p3900
aVremote
p3901
aVeasy
p3902
aVtake
p3903
aVonline
p3904
aVconsume
p3905
aVaudio
p3906
aVvisual
p3907
aVbased
p3908
aVOnline
p3909
aVeasy
p3910
aVonline
p3911
aVbenefit
p3912
aVfriendly
p3913
aVguided
p3914
aVbreeze
p3915
aVinvolves
p3916
aVcomplicated
p3917
aVadequate
p3918
aVinitial
p3919
aVallows
p3920
aVinitial
p3921
aVinitial
p3922
aVfailed
p3923
aVinitial
p3924
atp3925
a(Vtime
p3926
(lp3927
Vfront
p3928
aVconsiderable
p3929
aVnext
p3930
aVis
p3931
aVnext
p3932
aVremote
p3933
aVmore
p3934
aVhard
p3935
aVmore
p3936
aVmore
p3937
aVrelated
p3938
aVlook
p3939
aVremote
p3940
aVremote
p3941
aVprime
p3942
aVmuch
p3943
atp3944
a(VHarmony
p3945
(lp3946
Videntical
p3947
aVworth
p3948
aVlearn
p3949
aVdoes
p3950
aVuses
p3951
aVsolution
p3952
aVneeds
p3953
aVanswer
p3954
aVhad
p3955
aVproduct
p3956
aVdoes
p3957
aVbetter
p3958
aVtrusty
p3959
aVremote
p3960
aVis
p3961
aVold
p3962
aVgot
p3963
aVhas
p3964
aVhas
p3965
aVnon
p3966
aVfunctional
p3967
atp3968
a(Vproblem
p3969
(lp3970
VNext
p3971
aVis
p3972
aVis
p3973
aVbutton
p3974
aVbiggest
p3975
aVdisappear
p3976
aVbiggest
p3977
aVwas
p3978
aVtypical
p3979
aVcommon
p3980
aVmake
p3981
aVrisen
p3982
aVmajor
p3983
aVexact
p3984
aVoccurred
p3985
aVdue
p3986
aVknown
p3987
aVis
p3988
aVonly
p3989
aVis
p3990
atp3991
a(Vdevice
p3992
(lp3993
Vfunctioning
p3994
aVinexpensive
p3995
aVdefective
p3996
aVgreat
p3997
aVpricey
p3998
aVdatabase
p3999
aVobscure
p4000
aVin
p4001
aVin
p4002
aVimprovement
p4003
aVok
p4004
aVgiven
p4005
aVsuch
p4006
aVdo
p4007
aVspecific
p4008
atp4009
a(Vproduct
p4010
(lp4011
Vrequire
p4012
aVgreat
p4013
aVgreat
p4014
aVcapable
p4015
aVdefective
p4016
aVbetter
p4017
aVgreat
p4018
aVExcellent
p4019
aVeasy
p4020
aVamazing
p4021
aVoutstanding
p4022
aVfails
p4023
aVgreat
p4024
aVgreat
p4025
atp4026
a(Vunit
p4027
(lp4028
Vearlier
p4029
aVfailed
p4030
aVold
p4031
aVcheap
p4032
aVslippery
p4033
aVbad
p4034
aVable
p4035
aVworks
p4036
aVstopped
p4037
aVcharging
p4038
aVreplaced
p4039
aVstopped
p4040
aVhold
p4041
aVstopped
p4042
atp4043
a(Vway
p4044
(lp4045
Vis
p4046
aVable
p4047
aVis
p4048
aVlogical
p4049
aVis
p4050
aVlong
p4051
aVonly
p4052
aVsimple
p4053
aVwere
p4054
aVis
p4055
aVspecific
p4056
atp4057
a(Vscreen
p4058
(lp4059
Vold
p4060
aVthing
p4061
aVshows
p4062
aVfailed
p4063
aVflat
p4064
aVlighted
p4065
aVaccommodate
p4066
aVactive
p4067
aVlarge
p4068
aVbegan
p4069
aVsmallish
p4070
atp4071
a(VRF
p4072
(lp4073
Vrequirement
p4074
aVextended
p4075
aVremote
p4076
aVremote
p4077
aVtransmit
p4078
aVcapable
p4079
aVremote
p4080
aVhalf
p4081
aVinfrared
p4082
aVwork
p4083
aVremote
p4084
atp4085
a(Vbattery
p4086
(lp4087
Vlasts
p4088
aVhealthy
p4089
aVoriginal
p4090
aVprovides
p4091
aVoriginal
p4092
aVdefective
p4093
aVrechargeable
p4094
aVbulging
p4095
aVrechargeable
p4096
aVbad
p4097
aVneeds
p4098
atp4099
a(Veverything
p4100
(lp4101
Vwent
p4102
aVturns
p4103
aVok
p4104
aVworking
p4105
aVwent
p4106
aVeasier
p4107
aVlook
p4108
aVset
p4109
aVset
p4110
atp4111
a(Vfirmware
p4112
(lp4113
Vonline
p4114
aVupdate
p4115
aVlatest
p4116
aVupdate
p4117
aVupgraded
p4118
aVcurrent
p4119
aVupdate
p4120
aVobligatory
p4121
aVupdate
p4122
atp4123
a(Vwife
p4124
(lp4125
Vhas
p4126
aVloves
p4127
aVthinks
p4128
aVjunkie
p4129
aVable
p4130
aVloves
p4131
aVcomplained
p4132
atp4133
a(Vprocess
p4134
(lp4135
Vgoes
p4136
aVoverall
p4137
aVset
p4138
aVentire
p4139
aVinstall
p4140
aVwent
p4141
aVupdate
p4142
aVdifficult
p4143
atp4144
a(Vbutton
p4145
(lp4146
Vremote
p4147
aVglobal
p4148
aVis
p4149
aVused
p4150
aVdifferent
p4151
aVhave
p4152
aVdoes
p4153
aVsets
p4154
aVrelated
p4155
aVnext
p4156
atp4157
a(Vuse
p4158
(lp4159
Vdaily
p4160
aVheavy
p4161
aVearly
p4162
aVconstant
p4163
aVpersonal
p4164
aVheavy
p4165
aVnormal
p4166
aVlittle
p4167
atp4168
a(Vcomplaint
p4169
(lp4170
Vgeneral
p4171
aVis
p4172
aVonly
p4173
aVis
p4174
aVbiggest
p4175
aVis
p4176
aVis
p4177
aVonly
p4178
aVis
p4179
aVmain
p4180
aVsecondary
p4181
aVis
p4182
atp4183
a(Vsupport
p4184
(lp4185
Vis
p4186
aVonly
p4187
aVgreat
p4188
aVgood
p4189
aVTERRIBLE
p4190
aVtechnical
p4191
aVinadequate
p4192
atp4193
a(Vhardware
p4194
(lp4195
Vcheap
p4196
aVunsightly
p4197
aVindividual
p4198
aVok
p4199
aVnice
p4200
aVunreliable
p4201
atp4202
a(Vsystem
p4203
(lp4204
Vcharging
p4205
aVcomplicated
p4206
aVpleasurable
p4207
aVcomplex
p4208
aVgood
p4209
atp4210
a(Vdocumentation
p4211
(lp4212
Vlousy
p4213
aVpoor
p4214
aVinsightful
p4215
aVincluded
p4216
aVuseless
p4217
aVsupporting
p4218
atp4219
a(Vcradle
p4220
(lp4221
Vcharging
p4222
aVcharging
p4223
aVpersnickety
p4224
aVrecharging
p4225
aVrecharging
p4226
atp4227
a(Vmodel
p4228
(lp4229
Vlow
p4230
aVdifferent
p4231
aVold
p4232
aVhandheld
p4233
aVgood
p4234
atp4235
a(Vharmony
p4236
(lp4237
Vremote
p4238
aVremote
p4239
aVworks
p4240
aVworks
p4241
aVtake
p4242
atp4243
a(Vcomputer
p4244
(lp4245
Vaverage
p4246
aVexperienced
p4247
aVwas
p4248
aVmain
p4249
aVbackup
p4250
aVmain
p4251
aVwork
p4252
aVsavy
p4253
aVprofessional
p4254
atp4255
a(Vconfiguration
p4256
(lp4257
Vaccurate
p4258
aVexisting
p4259
aVold
p4260
aVaccurate
p4261
aVgood
p4262
aVseemed
p4263
aVperfect
p4264
aVcorrupted
p4265
aVexisting
p4266
atp4267
a(Vequipment
p4268
(lp4269
Vvisible
p4270
aVmore
p4271
aVroom
p4272
aVnewer
p4273
aVelectronic
p4274
aVfollowing
p4275
aVcloset
p4276
atp4277
a(Vcharge
p4278
(lp4279
Vwont
p4280
aVremote
p4281
aVdischarged
p4282
aVseveral
p4283
aVfull
p4284
aVfull
p4285
aVgo
p4286
atp4287
a(Vissue
p4288
(lp4289
Vchannel
p4290
aVridiculous
p4291
aVcharging
p4292
aVwent
p4293
aVkey
p4294
aVis
p4295
aVis
p4296
atp4297
a(Vprice
p4298
(lp4299
Vbest
p4300
aVworth
p4301
aVadded
p4302
aVoutstanding
p4303
aVlowest
p4304
aVpossible
p4305
aVadditional
p4306
atp4307
a(Vreason
p4308
(lp4309
Vonly
p4310
aVwas
p4311
aVclear
p4312
aVrunaway
p4313
aVonly
p4314
aVis
p4315
aVthanks
p4316
atp4317
a(Vmoney
p4318
(lp4319
Vmuch
p4320
aVmuch
p4321
aVWasted
p4322
aVhard
p4323
aVearned
p4324
atp4325
a(VTV
p4326
(lp4327
Vdifferent
p4328
aVmounted
p4329
aVturn
p4330
aVON
p4331
atp4332
a(Vbit
p4333
(lp4334
Vgood
p4335
aVexpensive
p4336
aVtried
p4337
aVis
p4338
atp4339
a(Vamount
p4340
(lp4341
Vfair
p4342
aVlove
p4343
aVfair
p4344
aVextreme
p4345
aVhuge
p4346
atp4347
a(Vroom
p4348
(lp4349
Vdark
p4350
aVremote
p4351
aVaccess
p4352
aVseperate
p4353
atp4354
a(Vcharger
p4355
(lp4356
Vhave
p4357
aVwork
p4358
aVsure
p4359
aVbad
p4360
aVbad
p4361
aVarriving
p4362
atp4363
a(Vnothing
p4364
(lp4365
Vremote
p4366
aVworked
p4367
aVseemed
p4368
aVwas
p4369
aVserious
p4370
atp4371
a(Vcable
p4372
(lp4373
Vincluded
p4374
aVUSB
p4375
aVdigital
p4376
aVincluded
p4377
aVUSB
p4378
atp4379
a(Vreceiver
p4380
(lp4381
Vchanges
p4382
aVsits
p4383
aVremote
p4384
aVhas
p4385
atp4386
a(Vpart
p4387
(lp4388
Vbetter
p4389
aVlower
p4390
aVmost
p4391
aVworst
p4392
aVis
p4393
aVmost
p4394
atp4395
a(Vcompany
p4396
(lp4397
Vgreat
p4398
aVstands
p4399
aVgreat
p4400
aVsmart
p4401
aVtry
p4402
aVfine
p4403
atp4404
a(Vdisplay
p4405
(lp4406
Vnice
p4407
aVremote
p4408
aVconked
p4409
aVwas
p4410
aVshows
p4411
aVnice
p4412
atp4413
a(Vcontrol
p4414
(lp4415
Vworking
p4416
aVfull
p4417
aVtook
p4418
aVremote
p4419
aVoverpriced
p4420
aVremote
p4421
atp4422
a(Voption
p4423
(lp4424
Vonly
p4425
aVwas
p4426
aVuseful
p4427
aVnamed
p4428
aVis
p4429
atp4430
a(Vconnection
p4431
(lp4432
Vsolid
p4433
aVfast
p4434
aVUSB
p4435
aVgood
p4436
atp4437
a(Vextender
p4438
(lp4439
Vworks
p4440
aVremote
p4441
aVremote
p4442
atp4443
a(Vresponse
p4444
(lp4445
Vprompt
p4446
aVgood
p4447
aVquick
p4448
atp4449
a(Vyear
p4450
(lp4451
Vlast
p4452
aVtiny
p4453
aVold
p4454
atp4455
a(Vone
p4456
(lp4457
Vokay
p4458
aVhas
p4459
aVtake
p4460
atp4461
a(Vstation
p4462
(lp4463
Vcharging
p4464
aVcharging
p4465
aVrecharging
p4466
aVmakes
p4467
aVcharging
p4468
atp4469
a(Vcabinet
p4470
(lp4471
Vclosed
p4472
aVremote
p4473
aVventilated
p4474
atp4475
a(Videa
p4476
(lp4477
Vgreat
p4478
aVgood
p4479
aVgood
p4480
aVgone
p4481
atp4482
a(VSetup
p4483
(lp4484
Vconsuming
p4485
aVeasy
p4486
aVlengthy
p4487
atp4488
a(Vcall
p4489
(lp4490
Vimportant
p4491
aVtook
p4492
aVgave
p4493
atp4494
a(VRF feature
p4495
(lp4496
Vuseful
p4497
aVfantastic
p4498
aVworks
p4499
atp4500
a(Vlife
p4501
(lp4502
Vworking
p4503
aVbecome
p4504
aVsuper
p4505
aVlong
p4506
atp4507
a(VHarmony software
p4508
(lp4509
Vlatest
p4510
aVupdate
p4511
aVfamiliar
p4512
atp4513
a(Vprogramming
p4514
(lp4515
Vexisting
p4516
aVproper
p4517
aVInitial
p4518
aVconfuse
p4519
atp4520
a(Vitem
p4521
(lp4522
Vupsetting
p4523
aVawesome
p4524
aVdisposable
p4525
atp4526
a(Vexperience
p4527
(lp4528
VIncredible
p4529
aVexcellent
p4530
aVdifferent
p4531
aVconsiderable
p4532
aVowned
p4533
atp4534
a(Vpiece
p4535
(lp4536
Vamazing
p4537
aVworst
p4538
aVam
p4539
atp4540
a(Vcustomer service
p4541
(lp4542
Vfriendly
p4543
aVuseful
p4544
aVamazing
p4545
aVabysmal
p4546
atp4547
a(Vsomething
p4548
(lp4549
Vdefective
p4550
aVway
p4551
aVwrong
p4552
atp4553
a(Vbase
p4554
(lp4555
Vcharging
p4556
aVcharging
p4557
aVcharging
p4558
aVcharging
p4559
atp4560
a(Vactivity
p4561
(lp4562
Vprogress
p4563
aVgiven
p4564
aVproper
p4565
atp4566
a(Vvalue
p4567
(lp4568
Vgreat
p4569
aVextender
p4570
aVbetter
p4571
atp4572
a(Vreview
p4573
(lp4574
Vcomplete
p4575
aVnegative
p4576
aVpast
p4577
aVseparate
p4578
atp4579
a(Vback
p4580
(lp4581
Vremote
p4582
aVremote
p4583
aVfew
p4584
atp4585
a(VRF receiver
p4586
(lp4587
Vcapability
p4588
aVrelays
p4589
aVincluded
p4590
atp4591
a(Vtech support
p4592
(lp4593
Vseems
p4594
aVinstances
p4595
aVworst
p4596
aVAWFUL
p4597
atp4598
a(Vbuy
p4599
(lp4600
Vbest
p4601
aVgood
p4602
aVgood
p4603
atp4604
a(Vdeal
p4605
(lp4606
Vgood
p4607
aVgreat
p4608
aVbig
p4609
atp4610
a(Vside
p4611
(lp4612
Vbottom
p4613
aVdown
p4614
aVgood
p4615
atp4616
a(VRF signal
p4617
(lp4618
Vmake
p4619
aVmakes
p4620
atp4621
a(Vset-up
p4622
(lp4623
Vquick
p4624
aVproblematic
p4625
atp4626
a(Vuser
p4627
(lp4628
Vuse
p4629
aVknow
p4630
atp4631
a(VLCD screen
p4632
(lp4633
Vstopped
p4634
aVGood
p4635
atp4636
a(Vcontact
p4637
(lp4638
Vfull
p4639
aVgood
p4640
atp4641
a(Vpage
p4642
(lp4643
Vnext
p4644
aVmuch
p4645
atp4646
a(Vquality
p4647
(lp4648
Vbeta
p4649
aVbuild
p4650
aVpoor
p4651
atp4652
a(Vdownside
p4653
(lp4654
Vis
p4655
aVmajor
p4656
aVfact
p4657
atp4658
a(Vday
p4659
(lp4660
Vblond
p4661
aVgoing
p4662
atp4663
a(Vtest
p4664
(lp4665
Vremote
p4666
aVdriving
p4667
aVdrive
p4668
atp4669
a(Vhome theater
p4670
(lp4671
Vready
p4672
aVdifferent
p4673
atp4674
a(Ventertainment center
p4675
(lp4676
Vlow
p4677
aVcustomized
p4678
atp4679
a(VLogitech support
p4680
(lp4681
Vgood
p4682
aVsome
p4683
atp4684
a(Vkey
p4685
(lp4686
Vis
p4687
aVsingle
p4688
aVremote
p4689
atp4690
a(Vhour
p4691
(lp4692
Vhalf
p4693
aVhalf
p4694
aVwasted
p4695
atp4696
a(Vcontrast
p4697
(lp4698
Venough
p4699
aVcrisp
p4700
atp4701
a(Vsignal
p4702
(lp4703
Vmixed
p4704
aVturned
p4705
atp4706
a(VSet-up
p4707
(lp4708
Veasier
p4709
aVpainless
p4710
atp4711
a(Vperformance
p4712
(lp4713
Vsluggish
p4714
aVbest
p4715
aVbest
p4716
aVbest
p4717
atp4718
a(VCD
p4719
(lp4720
Venclosed
p4721
aVenclosed
p4722
aVwayyyyyyyyyyyy
p4723
atp4724
a(Vcouple
p4725
(lp4726
Vstarting
p4727
aVlast
p4728
atp4729
a(Vdelay
p4730
(lp4731
Vadditional
p4732
aVis
p4733
aVgets
p4734
aVnoticeable
p4735
atp4736
a(Vfailure
p4737
(lp4738
Vcommon
p4739
aVconnection
p4740
atp4741
a(Vtrick
p4742
(lp4743
Vis
p4744
aVtroubleshooting
p4745
atp4746
a(Vdrawback
p4747
(lp4748
Vonly
p4749
aVbiggest
p4750
aVis
p4751
atp4752
a(VEverything
p4753
(lp4754
Vthere
p4755
aVruns
p4756
atp4757
a(Vbrand
p4758
(lp4759
Vdatabase
p4760
aVremote
p4761
atp4762
a(Vanyone
p4763
(lp4764
Vrun
p4765
aVpay
p4766
atp4767
a(Vmessage
p4768
(lp4769
Vrecorded
p4770
aVwork
p4771
atp4772
a(Vdefect
p4773
(lp4774
Voccasional
p4775
aVapparent
p4776
atp4777
a(Vcommand
p4778
(lp4779
Vlearned
p4780
aVlearned
p4781
aVwork
p4782
aVlast
p4783
atp4784
a(Vversion
p4785
(lp4786
Vworking
p4787
aVlatest
p4788
atp4789
a(Vmachine
p4790
(lp4791
Vmain
p4792
aVrunning
p4793
aVold
p4794
atp4795
a(Vcriticism
p4796
(lp4797
Vonly
p4798
aVbe
p4799
aVbiggest
p4800
aVis
p4801
atp4802
a(Vdirection
p4803
(lp4804
Vparticular
p4805
aVremote
p4806
aVparticular
p4807
atp4808
a(Vnumber
p4809
(lp4810
Vtotal
p4811
aVone
p4812
atp4813
a(Vimprovement
p4814
(lp4815
Vvast
p4816
aVhuge
p4817
atp4818
a(VCustomer support
p4819
(lp4820
Vfree
p4821
aVpoor
p4822
atp4823
a(Vstep
p4824
(lp4825
Vunnecessary
p4826
aVadditional
p4827
atp4828
a(Vtheater system
p4829
(lp4830
Vcomplex
p4831
aVcomplex
p4832
atp4833
a(VPC
p4834
(lp4835
Vtouchy
p4836
aVolder
p4837
atp4838
a(VAV system
p4839
(lp4840
Vcomplicated
p4841
aVeasier
p4842
aVcomplex
p4843
atp4844
a(Vcamera
p4845
(lp4846
Vdigital
p4847
aVsee
p4848
aVdigital
p4849
atp4850
a(Vreturn policy
p4851
(lp4852
Vexcellent
p4853
aVexcellent
p4854
atp4855
a(VAnyone
p4856
(lp4857
Vable
p4858
aVprogram
p4859
atp4860
a(Vhelp
p4861
(lp4862
Vdirect
p4863
aVexcellent
p4864
aVgood
p4865
aVfast
p4866
atp4867
a(Vinput
p4868
(lp4869
Vappropriate
p4870
aVoptimal
p4871
atp4872
a(V.2
p4873
(lp4874
Vtall
p4875
aVrefined
p4876
atp4877
a(Vadvice
p4878
(lp4879
Vexcellent
p4880
aVis
p4881
atp4882
a(Vdesign
p4883
(lp4884
Vmiserable
p4885
aVpragmatic
p4886
aVpoor
p4887
aVphysical
p4888
aVphysical
p4889
atp4890
a(Vsomeone
p4891
(lp4892
Vcall
p4893
aVpick
p4894
atp4895
a(Vwait
p4896
(lp4897
Vminute
p4898
aVadditional
p4899
aVminute
p4900
atp4901
a(Vbutton press
p4902
(lp4903
Vsingle
p4904
aVturns
p4905
atp4906
a(Vtouch
p4907
(lp4908
Vsimple
p4909
aVnice
p4910
atp4911
a(Vline
p4912
(lp4913
VdevicesBottom
p4914
aVbottom
p4915
atp4916
a(Vpurchase
p4917
(lp4918
Vclient
p4919
aVworth
p4920
atp4921
a(Vluck
p4922
(lp4923
Vbetter
p4924
aVbetter
p4925
atp4926
a(Vrating
p4927
(lp4928
Vhighest
p4929
atp4930
a(Vend installer
p4931
(lp4932
Vhigh
p4933
aVcharge
p4934
atp4935
a(Vsupport rep
p4936
(lp4937
Vexplain
p4938
atp4939
a(Vbonus
p4940
(lp4941
Vadded
p4942
atp4943
a(Velectronics item
p4944
(lp4945
Vreturned
p4946
aVgo
p4947
atp4948
a(VRC
p4949
(lp4950
Vhang
p4951
atp4952
a(VResolution
p4953
(lp4954
Vmore
p4955
atp4956
a(Vapplication
p4957
(lp4958
Vworks
p4959
atp4960
a(Vtouchscreen
p4961
(lp4962
Vremote
p4963
atp4964
a(Vmusic
p4965
(lp4966
Vclassical
p4967
aVclassical
p4968
atp4969
a(VSupport
p4970
(lp4971
Vhelp
p4972
atp4973
a(Vaudio signal
p4974
(lp4975
Vselected
p4976
atp4977
a(Vphone
p4978
(lp4979
Vcordless
p4980
atp4981
a(Vrep
p4982
(lp4983
Vpicked
p4984
atp4985
a(VDO
p4986
(lp4987
Vuse
p4988
atp4989
a(VLearning mode
p4990
(lp4991
Vstandard
p4992
atp4993
a(VactionsMinus
p4994
(lp4995
Vseveral
p4996
atp4997
a(VPlus
p4998
(lp4999
Vhelps
p5000
atp5001
a(Vonline database
p5002
(lp5003
Vhad
p5004
atp5005
a(VRF standard
p5006
(lp5007
Vdifferent
p5008
atp5009
a(Vserver command
p5010
(lp5011
Vlast
p5012
aVis
p5013
atp5014
a(Vdoorstop
p5015
(lp5016
Vdead
p5017
atp5018
a(Vrange
p5019
(lp5020
Vbroad
p5021
atp5022
a(VChocolate Lab
p5023
(lp5024
Vpick
p5025
atp5026
a(Vequipment database
p5027
(lp5028
Vmassive
p5029
atp5030
a(VCharge meter
p5031
(lp5032
Vshows
p5033
atp5034
a(Vvision
p5035
(lp5036
Vgood
p5037
aVclose
p5038
atp5039
a(Vreason?I
p5040
(lp5041
Vgood
p5042
atp5043
a(VLogitech software
p5044
(lp5045
Vhas
p5046
atp5047
a(Vnavigation
p5048
(lp5049
Vcontrols
p5050
atp5051
a(VTIME
p5052
(lp5053
VYOUR
p5054
atp5055
a(Vone.Support
p5056
(lp5057
Vold
p5058
atp5059
a(Vmagazine
p5060
(lp5061
Vonline
p5062
atp5063
a(VRF portion
p5064
(lp5065
Vwork
p5066
atp5067
a(Vimplementation
p5068
(lp5069
Vlacking
p5070
atp5071
a(Vmodel.I
p5072
(lp5073
Vcapable
p5074
atp5075
a(Vcapital
p5076
(lp5077
Vadditional
p5078
atp5079
a(VAmazon price
p5080
(lp5081
Vless
p5082
atp5083
a(Vrocker button
p5084
(lp5085
Vwork
p5086
atp5087
a(Vliving room
p5088
(lp5089
Vsmall
p5090
atp5091
a(VHarmony concept
p5092
(lp5093
Vgreat
p5094
atp5095
a(Vnoone
p5096
(lp5097
Vrun
p5098
atp5099
a(Vyears.THE BADHarmony
p5100
(lp5101
Vseveral
p5102
atp5103
a(Vpaint
p5104
(lp5105
Vsilver
p5106
aVflaking
p5107
atp5108
a(Vcaveat
p5109
(lp5110
Vis
p5111
atp5112
a(Vdaughter
p5113
(lp5114
Vyear
p5115
aVold
p5116
atp5117
a(Vaccount
p5118
(lp5119
Vexisting
p5120
atp5121
a(Vnightmare
p5122
(lp5123
Vtotal
p5124
atp5125
a(Vsnap
p5126
(lp5127
Vcomplaint
p5128
atp5129
a(Varray
p5130
(lp5131
Vendless
p5132
atp5133
a(Vcustomer service.All
p5134
(lp5135
Vonline
p5136
atp5137
a(Vcapability
p5138
(lp5139
Vgreat
p5140
atp5141
a(Vdefinition
p5142
(lp5143
Vwhat
p5144
atp5145
a(Vcable box/DVR
p5146
(lp5147
Vcentral
p5148
atp5149
a(Vform
p5150
(lp5151
Vline
p5152
atp5153
a(Vdoors.While
p5154
(lp5155
Vclosed
p5156
atp5157
a(Vconfigure
p5158
(lp5159
Vwork
p5160
atp5161
a(VHarmony line
p5162
(lp5163
Vremote
p5164
atp5165
a(Vweight
p5166
(lp5167
Vnecessary
p5168
atp5169
a(Vbug
p5170
(lp5171
Vknown
p5172
atp5173
a(Voverhaul.I
p5174
(lp5175
Vcomplete
p5176
aVread
p5177
atp5178
a(VIR extender
p5179
(lp5180
Vworks
p5181
atp5182
a(Vcomplexity
p5183
(lp5184
Vperceived
p5185
atp5186
a(Vsoftware usability
p5187
(lp5188
Vpoor
p5189
atp5190
a(VPanasonic projector
p5191
(lp5192
Vfront
p5193
atp5194
a(VTHe idea
p5195
(lp5196
Vwhole
p5197
aVis
p5198
atp5199
a(V_________________________
p5200
(lp5201
Vadmit
p5202
atp5203
a(Vposture
p5204
(lp5205
Vperfect
p5206
atp5207
a(Vworld experience
p5208
(lp5209
Vreal
p5210
atp5211
a(Vbatch
p5212
(lp5213
Vbad
p5214
atp5215
a(Vsupport center
p5216
(lp5217
Vexcellent
p5218
atp5219
a(Vadventure
p5220
(lp5221
Vlatest
p5222
atp5223
a(Vthrough.The
p5224
(lp5225
Vincluded
p5226
atp5227
a(Vlevel tech
p5228
(lp5229
Varranged
p5230
atp5231
a(Vhome setup
p5232
(lp5233
Vaverage
p5234
atp5235
a(Vthem.The software
p5236
(lp5237
Vsucks
p5238
atp5239
a(Varrangement
p5240
(lp5241
Vkey
p5242
aVoptimal
p5243
atp5244
a(Vimpact resistance
p5245
(lp5246
Vbetter
p5247
atp5248
a(VBoy
p5249
(lp5250
Vdid
p5251
atp5252
a(Vtastes.On top
p5253
(lp5254
Vpersonal
p5255
atp5256
a(Vcredit
p5257
(lp5258
Vfull
p5259
atp5260
a(Vtweaking example
p5261
(lp5262
Vsubtitles
p5263
atp5264
a(Vapproach
p5265
(lp5266
Valternative
p5267
aVis
p5268
atp5269
a(Vbox product
p5270
(lp5271
Vopen
p5272
atp5273
a(Vobject
p5274
(lp5275
Vadditional
p5276
atp5277
a(Vroom TV
p5278
(lp5279
Vmain
p5280
atp5281
a(Vfriend
p5282
(lp5283
Vbest
p5284
atp5285
a(Vdeal.My
p5286
(lp5287
Vbig
p5288
aVgripe
p5289
atp5290
a(Vfeel
p5291
(lp5292
Vreal
p5293
aVcheap
p5294
atp5295
a(Vraster
p5296
(lp5297
Vjumbled
p5298
atp5299
a(VPOC
p5300
(lp5301
VEXPENSIVE
p5302
atp5303
a(Vcomputer savy
p5304
(lp5305
Vseem
p5306
atp5307
a(Vpause
p5308
(lp5309
Vlonger
p5310
atp5311
a(Vprogramming Harmony.I
p5312
(lp5313
Vdeficient
p5314
aVthink
p5315
atp5316
a(Vweb approach
p5317
(lp5318
Vincluded
p5319
aValternative
p5320
atp5321
a(Vwork.In
p5322
(lp5323
Vmuch
p5324
atp5325
a(Vheck ?!!
p5326
(lp5327
VWhat
p5328
atp5329
a(Vetc.
p5330
(lp5331
Vrewind
p5332
atp5333
a(Vlimit
p5334
(lp5335
Vis
p5336
atp5337
a(Vattempt
p5338
(lp5339
Vmore
p5340
atp5341
a(Vinput source
p5342
(lp5343
Vcorrect
p5344
atp5345
a(VaLogitech Harmony
p5346
(lp5347
Vremote
p5348
atp5349
a(Vlack
p5350
(lp5351
Vidiot
p5352
atp5353
a(Vreplacement
p5354
(lp5355
Vlasted
p5356
atp5357
a(Vfirmware2
p5358
(lp5359
Vlatest
p5360
atp5361
a(Vbucks.You
p5362
(lp5363
Vturn
p5364
atp5365
a(Vworld work
p5366
(lp5367
Vreal
p5368
atp5369
a(V!!!
p5370
(lp5371
Vremote
p5372
atp5373
a(Vmother-in-law
p5374
(lp5375
Voperate
p5376
atp5377
a(VPretty procedure
p5378
(lp5379
Veasy
p5380
atp5381
a(Vanything
p5382
(lp5383
Vworth
p5384
atp5385
a(Vsignal method
p5386
(lp5387
Vset
p5388
aVspoiled
p5389
atp5390
a(Vresponse time
p5391
(lp5392
Vslow
p5393
atp5394
a(Vmatter
p5395
(lp5396
VSLOWWW
p5397
atp5398
a(Vfirmware upgrade.All-in-all
p5399
(lp5400
Vfuture
p5401
atp5402
a(VRF alternative
p5403
(lp5404
Vgood
p5405
atp5406
a(Vbutton push
p5407
(lp5408
Vsingle
p5409
atp5410
a(Vinformation
p5411
(lp5412
Vmuch
p5413
aVuseful
p5414
atp5415
a(VVista support
p5416
(lp5417
Vclear
p5418
atp5419
a(Vbattery indicator
p5420
(lp5421
Vred
p5422
atp5423
a(VDVD player
p5424
(lp5425
Vcheap
p5426
atp5427
a(Vblock
p5428
(lp5429
Vfall
p5430
aVbottom
p5431
atp5432
a(Vtweaking
p5433
(lp5434
Vtook
p5435
atp5436
a(Vbutton layout
p5437
(lp5438
Vbetter
p5439
atp5440
a(Vmacro functionality
p5441
(lp5442
Vtrue
p5443
atp5444
a(VCustomer service
p5445
(lp5446
Vprovided
p5447
atp5448
a(VIR repeater
p5449
(lp5450
Vflaky
p5451
atp5452
a(Vfactory battery
p5453
(lp5454
Vswelled
p5455
atp5456
a(Vbase charger
p5457
(lp5458
Vmake
p5459
atp5460
a(Vshelf
p5461
(lp5462
Vbottom
p5463
atp5464
a(Vmanner
p5465
(lp5466
Vcomplex
p5467
atp5468
a(Vfix
p5469
(lp5470
Vdevices
p5471
atp5472
a(Vcolor screen
p5473
(lp5474
Vcommands
p5475
atp5476
a(VA/V
p5477
(lp5478
Voriginal
p5479
aVremote
p5480
atp5481
a(Vtooth capability
p5482
(lp5483
Vblue
p5484
atp5485
a(Vbutton lag
p5486
(lp5487
Vgotten
p5488
atp5489
a(Vdeletion task
p5490
(lp5491
Veasy
p5492
aVsimple
p5493
atp5494
a(Vtv unit
p5495
(lp5496
Vdirect
p5497
atp5498
a(Vbutton configuration
p5499
(lp5500
Vbehave
p5501
atp5502
a(VRF/IR device
p5503
(lp5504
Vseparate
p5505
atp5506
a(Vport
p5507
(lp5508
VUSB
p5509
atp5510
a(Vpad
p5511
(lp5512
VLighted
p5513
aVkey
p5514
atp5515
a(Vsetup UI
p5516
(lp5517
Vbear
p5518
atp5519
a(Vzen state
p5520
(lp5521
Vmakes
p5522
atp5523
a(Vstory
p5524
(lp5525
VLong
p5526
aVshort
p5527
atp5528
a(VIR
p5529
(lp5530
Vactual
p5531
atp5532
a(Vaction.After
p5533
(lp5534
Vremote
p5535
atp5536
a(Vcustomer support
p5537
(lp5538
Vexcellent
p5539
atp5540
a(Vprogramed.It
p5541
(lp5542
Vremote
p5543
aVdoes
p5544
atp5545
a(Vcabinet door
p5546
(lp5547
Vopen
p5548
atp5549
a(Vvolume control
p5550
(lp5551
Vworks
p5552
atp5553
a(Voutput
p5554
(lp5555
Vinfrared
p5556
aVstopped
p5557
atp5558
a(Vwork
p5559
(lp5560
Vremote
p5561
atp5562
a(VPC savy
p5563
(lp5564
Vpretty
p5565
atp5566
a(Vbook
p5567
(lp5568
Vends
p5569
atp5570
a(Vattitude
p5571
(lp5572
Vsuch
p5573
aVflippant
p5574
atp5575
a(Vactivities.The charger
p5576
(lp5577
Vworks
p5578
atp5579
a(Vlearning
p5580
(lp5581
Vlittle
p5582
atp5583
a(Vhead
p5584
(lp5585
Vlot
p5586
atp5587
a(VOpen/Close
p5588
(lp5589
Vwas
p5590
atp5591
a(Vcombo
p5592
(lp5593
Vendless
p5594
atp5595
a(Vsolution
p5596
(lp5597
Vpartial
p5598
aVis
p5599
aVbest
p5600
atp5601
a(Vdrain
p5602
(lp5603
Vactual
p5604
atp5605
a(VHarmony user
p5606
(lp5607
Vexperienced
p5608
atp5609
a(Vlogitech website
p5610
(lp5611
Vhas
p5612
atp5613
a(VLogitech database
p5614
(lp5615
Vseems
p5616
atp5617
a(VConfiguration
p5618
(lp5619
Vtakes
p5620
atp5621
a(Vlogitech
p5622
(lp5623
Vcontrol
p5624
atp5625
a(VA/V receiver
p5626
(lp5627
Vcommands
p5628
atp5629
a(Vhold
p5630
(lp5631
Vlong
p5632
atp5633
a(VPlasma TV.I
p5634
(lp5635
Volder
p5636
atp5637
a(Vplus
p5638
(lp5639
Vhuge
p5640
atp5641
a(Vfather
p5642
(lp5643
Vwanted
p5644
atp5645
a(Vcontrols.There
p5646
(lp5647
Vmultiple
p5648
aVremote
p5649
atp5650
a(VButton layout
p5651
(lp5652
Vlocated
p5653
atp5654
a(Vcarpet
p5655
(lp5656
Vsoft
p5657
atp5658
a(VBattery cover
p5659
(lp5660
Vbroke
p5661
atp5662
a(Vcomponents Receiver
p5663
(lp5664
Vfollowing
p5665
atp5666
a(VCool.The mode
p5667
(lp5668
Vmain
p5669
aVis
p5670
atp5671
a(Voval
p5672
(lp5673
Vtop
p5674
atp5675
a(Vbutton block
p5676
(lp5677
Vlower
p5678
atp5679
a(Vfunctionality
p5680
(lp5681
Vfull
p5682
atp5683
a(Vglass door
p5684
(lp5685
Vopen
p5686
atp5687
a(Vcontent
p5688
(lp5689
Vactual
p5690
aVadjust
p5691
atp5692
a(Vsettings library
p5693
(lp5694
Vexcellent
p5695
atp5696
a(Vtransaction
p5697
(lp5698
VOutstanding
p5699
atp5700
a(Vprofile
p5701
(lp5702
Vsmart
p5703
atp5704
a(VIR beam
p5705
(lp5706
Vnarrow
p5707
atp5708
a(Vwayyyyyyyyyyyy
p5709
(lp5710
Vtravesty
p5711
atp5712
a(Vcustomer
p5713
(lp5714
Vused
p5715
aVfound
p5716
aVdropped
p5717
aVwas
p5718
atp5719
a(Vstyle
p5720
(lp5721
Vpersonal
p5722
atp5723
a(Vsetting
p5724
(lp5725
Vsimple
p5726
aVis
p5727
atp5728
a(Vconnector
p5729
(lp5730
VUSB
p5731
atp5732
a(VA manual
p5733
(lp5734
Vwritten
p5735
atp5736
a(Vpackage
p5737
(lp5738
Vwhole
p5739
aVremote
p5740
aVwhole
p5741
aVcomplete
p5742
aVremote
p5743
atp5744
a(VCD player
p5745
(lp5746
Vattached
p5747
atp5748
a(Vbeta
p5749
(lp5750
Vlate
p5751
atp5752
a(Vmonth
p5753
(lp5754
Vabout
p5755
atp5756
a(Vcomponent
p5757
(lp5758
Vspecific
p5759
atp5760
a(Vusb cable
p5761
(lp5762
Vincluded
p5763
aVconnected
p5764
atp5765
a(Vadvantage
p5766
(lp5767
Vhave
p5768
atp5769
a(Vcustomer experience
p5770
(lp5771
Vshady
p5772
atp5773
a(Vjob
p5774
(lp5775
Vfine
p5776
atp5777
a(Vsupport staff
p5778
(lp5779
Vmysterious
p5780
atp5781
a(Vlot/all
p5782
(lp5783
Vseem
p5784
atp5785
a(Vnit
p5786
(lp5787
Vminor
p5788
atp5789
a(Vwell.On side
p5790
(lp5791
Vplus
p5792
atp5793
a(Vtinkering
p5794
(lp5795
Vmuch
p5796
atp5797
a(VDVDO unit
p5798
(lp5799
Vwork
p5800
aVimportant
p5801
atp5802
a(Vevent
p5803
(lp5804
Vunlikely
p5805
atp5806
a(Vlockup
p5807
(lp5808
Voccasional
p5809
atp5810
a(VIR control
p5811
(lp5812
Vexisting
p5813
aVremote
p5814
atp5815
a(Vwave support
p5816
(lp5817
Vlimited
p5818
atp5819
a(Vintegration
p5820
(lp5821
Vseamless
p5822
atp5823
a(VHDTV
p5824
(lp5825
Vmounted
p5826
atp5827
a(Vposition
p5828
(lp5829
Voff
p5830
atp5831
a(Vnone
p5832
(lp5833
Voperate
p5834
atp5835
a(VPhilips TSU7000
p5836
(lp5837
Vremote
p5838
atp5839
a(Vsticker
p5840
(lp5841
Vsticker
p5842
aVwrong
p5843
atp5844
a(Vtime.Also
p5845
(lp5846
Vtouch
p5847
atp5848
a(Vperson
p5849
(lp5850
Vadmitted
p5851
atp5852
a(Vwall
p5853
(lp5854
Vmounted
p5855
atp5856
a(Vcorrectly.The portion
p5857
(lp5858
Vset
p5859
aVcame
p5860
atp5861
a(Vresults.Support
p5862
(lp5863
Vgreat
p5864
atp5865
a(Vsuggestion
p5866
(lp5867
Vis
p5868
atp5869
a(Vbenefit
p5870
(lp5871
Vadditional
p5872
atp5873
a(Vsimpler.On
p5874
(lp5875
Vlittle
p5876
atp5877
a(VIR blaster
p5878
(lp5879
Vworks
p5880
atp5881
a(Vcode library
p5882
(lp5883
Vsingle
p5884
atp5885
a(Vresearch
p5886
(lp5887
Vfurther
p5888
atp5889
a(Vpenny.You
p5890
(lp5891
Vknow
p5892
atp5893
a(VPS3 interface
p5894
(lp5895
Vblue
p5896
aVremote
p5897
atp5898
a(Vpronto neo
p5899
(lp5900
Vstood
p5901
atp5902
a(Vlayout
p5903
(lp5904
Vgreat
p5905
atp5906
a(Vhalf
p5907
(lp5908
Vbottom
p5909
atp5910
a(VRF extender
p5911
(lp5912
Vhandy
p5913
atp5914
a(Vtooth
p5915
(lp5916
Vblue
p5917
aVblue
p5918
aVblue
p5919
atp5920
a(Vcontrol design
p5921
(lp5922
Vintelligent
p5923
aVremote
p5924
atp5925
a(Vactivity.I
p5926
(lp5927
Vparticular
p5928
atp5929
a(Vwhile
p5930
(lp5931
Vlittle
p5932
atp5933
a(Vlaptop
p5934
(lp5935
Vcomes
p5936
atp5937
a(Vwindow
p5938
(lp5939
Vresizeable
p5940
atp5941
a(VTV guide
p5942
(lp5943
Vonscreen
p5944
atp5945
a(Vtime investment
p5946
(lp5947
Vlarge
p5948
aVis
p5949
atp5950
a(Vpenny
p5951
(lp5952
Vpretty
p5953
atp5954
a(Vsupport forum
p5955
(lp5956
Vloyal
p5957
atp5958
a(Vcat
p5959
(lp5960
Vthought
p5961
atp5962
a(Vevent.HINT
p5963
(lp5964
Vinfrequent
p5965
atp5966
a(Vfiance
p5967
(lp5968
Vlost
p5969
aVuse
p5970
atp5971
a(Vrf extender
p5972
(lp5973
Vremote
p5974
aVuse
p5975
atp5976
a(Vmode
p5977
(lp5978
VLearn
p5979
atp5980
a(Vtouch screen
p5981
(lp5982
Vremote
p5983
atp5984
a(Voverall.The display
p5985
(lp5986
Vreliable
p5987
atp5988
a(Vsurface
p5989
(lp5990
Vcontour
p5991
aVmakes
p5992
atp5993
a(Vprice tag
p5994
(lp5995
Vhefty
p5996
atp5997
a(Vbattery door
p5998
(lp5999
Vstay
p6000
atp6001
a(VNone
p6002
(lp6003
Vanything
p6004
atp6005
a(Vexplanation
p6006
(lp6007
Vwritten
p6008
aVuseful
p6009
atp6010
a(Vright .2
p6011
(lp6012
Vbasic
p6013
atp6014
a(Vagain.Haven t
p6015
(lp6016
Vtried
p6017
atp6018
a(Vorientation
p6019
(lp6020
Vbrief
p6021
atp6022
a(Vknowledge
p6023
(lp6024
Vrudimentary
p6025
atp6026
a(Vbasis
p6027
(lp6028
Vdaily
p6029
atp6030
a(Vuseless.I
p6031
(lp6032
Vremote
p6033
aVhad
p6034
atp6035
a(Vchannel
p6036
(lp6037
Vspecific
p6038
atp6039
a(Vtweeking
p6040
(lp6041
Vminor
p6042
atp6043
a(Vcan
p6044
(lp6045
Vremote
p6046
aVanything
p6047
atp6048
a(VResponse
p6049
(lp6050
Vsuperb
p6051
atp6052
a(Vprogramming process
p6053
(lp6054
Vbombed
p6055
atp6056
a(Vgood-where
p6057
(lp6058
Vstart
p6059
atp6060
a(Vweek.The
p6061
(lp6062
Vresponsive
p6063
atp6064
a(VReason
p6065
(lp6066
VWonderful
p6067
aVenough
p6068
atp6069
a(Vease
p6070
(lp6071
Vseamless
p6072
atp6073
a(Vdata base
p6074
(lp6075
Vhas
p6076
atp6077
a(Vroom tv
p6078
(lp6079
Vregular
p6080
atp6081
a(Vchange
p6082
(lp6083
Vminor
p6084
aVeasy
p6085
atp6086
a(Vlcd display
p6087
(lp6088
Vincluded
p6089
aVmakes
p6090
atp6091
a(Vflexibility
p6092
(lp6093
Vmuch
p6094
atp6095
a(Vservice experience
p6096
(lp6097
Vnegative
p6098
aVsingle
p6099
aVbest
p6100
atp6101
a(Vwee bit
p6102
(lp6103
Vdim
p6104
atp6105
a(VRF function
p6106
(lp6107
Vcontrolling
p6108
atp6109
a(VDVD default
p6110
(lp6111
VEject
p6112
atp6113
a(Vwand
p6114
(lp6115
Vmagic
p6116
aVmagic
p6117
atp6118
a(Vdocking station
p6119
(lp6120
Vpain
p6121
atp6122
a(Vbacklight
p6123
(lp6124
Vturns
p6125
atp6126
a(Vstereo system
p6127
(lp6128
Vold
p6129
atp6130
a(VAV guy
p6131
(lp6132
Vset
p6133
atp6134
a(Vsilver button.Follow-up
p6135
(lp6136
Vtop
p6137
atp6138
a(Vcode
p6139
(lp6140
Vmalicious
p6141
atp6142
a(Vtop box
p6143
(lp6144
Varcane
p6145
atp6146
a(Vvolume
p6147
(lp6148
Vskinny
p6149
aVenough
p6150
atp6151
a(Vbox item
p6152
(lp6153
Vopen
p6154
atp6155
a(Vcomputer setup
p6156
(lp6157
VInitial
p6158
aVsimple
p6159
atp6160
a(Vfunction
p6161
(lp6162
Vis
p6163
atp6164
a(Vconcept
p6165
(lp6166
Vgood
p6167
atp6168
a(Varea
p6169
(lp6170
Vlarger
p6171
atp6172
a(Vcustom
p6173
(lp6174
Vprogrammed
p6175
atp6176
a(Vtech service
p6177
(lp6178
Vlame
p6179
atp6180
a(VRF/IR base
p6181
(lp6182
Vremote
p6183
atp6184
a(Vdiscussion thread
p6185
(lp6186
Vprovided
p6187
atp6188
a(Vscreen.Nope
p6189
(lp6190
Vblue
p6191
atp6192
a(Vresolution
p6193
(lp6194
Vgreat
p6195
atp6196
a(Vinfo
p6197
(lp6198
Vhard
p6199
atp6200
a(Vclient software
p6201
(lp6202
Vlose
p6203
aVhas
p6204
atp6205
a(Vbump
p6206
(lp6207
Vlittle
p6208
aVknocks
p6209
atp6210
a(Vtv hd
p6211
(lp6212
Vdirect
p6213
aVsat
p6214
atp6215
a(Voffer
p6216
(lp6217
Vrefurbished
p6218
atp6219
a(Vmotion
p6220
(lp6221
Vlights
p6222
atp6223
a(Vdown-side
p6224
(lp6225
Varrangement
p6226
atp6227
a(Vmethod
p6228
(lp6229
Vtried
p6230
atp6231
a(Vcover
p6232
(lp6233
Vholds
p6234
atp6235
a(VI wrong!I
p6236
(lp6237
Vhave
p6238
atp6239
a(Voperation
p6240
(lp6241
Vdifficult
p6242
atp6243
a(VAppleTV
p6244
(lp6245
Vcontrolled
p6246
atp6247
a(Vtime.It
p6248
(lp6249
Vdoing
p6250
atp6251
a(VMcDonalds meal
p6252
(lp6253
Vhappy
p6254
atp6255
a(Vguy
p6256
(lp6257
Vget
p6258
atp6259
a(Vlot
p6260
(lp6261
Vdoors
p6262
atp6263
a(Vgame
p6264
(lp6265
Vfeatures
p6266
atp6267
a(Vlighting
p6268
(lp6269
Vproblematic
p6270
atp6271
a(Vscripting
p6272
(lp6273
Vkey
p6274
atp6275
a(Vinterface
p6276
(lp6277
Vweb
p6278
aVUSB
p6279
atp6280
a(Vbattery life
p6281
(lp6282
Vexcellent
p6283
atp6284
a(Vusability
p6285
(lp6286
Vexcellent
p6287
atp6288
a(Vgirl
p6289
(lp6290
Vold
p6291
atp6292
a(Vpress
p6293
(lp6294
Vfeels
p6295
atp6296
a(VDevice mode
p6297
(lp6298
Vallow
p6299
atp6300
a(Vchange channel
p6301
(lp6302
Vfast
p6303
atp6304
a(Vs/w
p6305
(lp6306
Vinitial
p6307
aVinstall
p6308
atp6309
a(Vlearning exercise
p6310
(lp6311
Vremote
p6312
atp6313
a(Vglitch
p6314
(lp6315
Vcaused
p6316
atp6317
a(Vpicture
p6318
(lp6319
Vflat
p6320
atp6321
a(Vcommands.Bottom-line
p6322
(lp6323
Vvarious
p6324
atp6325
a(VDVD
p6326
(lp6327
Vhidden
p6328
atp6329
a(VBottom line
p6330
(lp6331
Vconfigure
p6332
atp6333
a(VRF-IR repeater
p6334
(lp6335
Vincluded
p6336
atp6337
a(Vrunning
p6338
(lp6339
Vremote
p6340
atp6341
a(Vcause
p6342
(lp6343
Vremote
p6344
atp6345
a(Vplace
p6346
(lp6347
Vbetter
p6348
atp6349
a(Vcouch potato
p6350
(lp6351
Veasier
p6352
atp6353
a(Vlight
p6354
(lp6355
Vback
p6356
aVweak
p6357
aVBlue
p6358
aVshows
p6359
atp6360
a(Vproblems.This
p6361
(lp6362
Vlittle
p6363
aVremotes
p6364
aVremote
p6365
atp6366
a(Vvideophile
p6367
(lp6368
Vhave
p6369
atp6370
a(Vswitching process.It
p6371
(lp6372
Vlengthy
p6373
atp6374
a(Vease user
p6375
(lp6376
Vreal
p6377
atp6378
a(Vcradle issue
p6379
(lp6380
Vbetter
p6381
atp6382
a(VIR noise
p6383
(lp6384
Vsevere
p6385
atp6386
a(Vwish
p6387
(lp6388
Vbiggest
p6389
aVis
p6390
atp6391
a(Veveryone
p6392
(lp6393
Vuse
p6394
atp6395
a(VWord
p6396
(lp6397
Vconverts
p6398
atp6399
a(Vpizza
p6400
(lp6401
Vgood
p6402
atp6403
a(Vwizard
p6404
(lp6405
Vlimiting
p6406
atp6407
a(Vactivies button
p6408
(lp6409
Vdifferent
p6410
atp6411
a(Vsupport operator
p6412
(lp6413
Vinitial
p6414
aVrefused
p6415
atp6416
a(Vto.Well
p6417
(lp6418
Vdisappointed
p6419
atp6420
a(Veyesight
p6421
(lp6422
Vgreat
p6423
atp6424
a(VWife
p6425
(lp6426
Vlove
p6427
atp6428
a(Vend shop
p6429
(lp6430
Vexpensive
p6431
aVhigh
p6432
atp6433
a(Vnight recording
p6434
(lp6435
Vlate
p6436
atp6437
a(Vinconvenience
p6438
(lp6439
Vminor
p6440
atp6441
a(Vtouch pad.I
p6442
(lp6443
Ventire
p6444
aVcontrol
p6445
atp6446
a(VNokia BLB-2
p6447
(lp6448
Vworks
p6449
atp6450
a(VRemote user
p6451
(lp6452
Vsatisfied
p6453
atp6454
a(VIR/RF capability
p6455
(lp6456
Vis
p6457
atp6458
a(VButton placement
p6459
(lp6460
Vbetter
p6461
atp6462
a(Vbackground
p6463
(lp6464
Vblue
p6465
atp6466
a(Vmalfunction
p6467
(lp6468
Vis
p6469
atp6470
a(Vinput everything
p6471
(lp6472
Vneeds
p6473
atp6474
a(Vtab
p6475
(lp6476
Vbroke
p6477
atp6478
a(Vmodel number
p6479
(lp6480
Vdifferent
p6481
atp6482
a(Vgrail
p6483
(lp6484
Vholy
p6485
atp6486
a(Vtrouble
p6487
(lp6488
Vable
p6489
atp6490
a(Vfamily
p6491
(lp6492
Vchallenged
p6493
atp6494
a(Vcharger.I
p6495
(lp6496
Vincluded
p6497
atp6498
a(VTV unit
p6499
(lp6500
VDirect
p6501
atp6502
a(Vlegacy
p6503
(lp6504
Vremote
p6505
atp6506
a(Vsupport.Logitech
p6507
(lp6508
Vmiserable
p6509
atp6510
a(Vsubstitute
p6511
(lp6512
Vis
p6513
atp6514
a(Vsystem setup
p6515
(lp6516
Vdifficult
p6517
atp6518
a(Vmodel Harmony
p6519
(lp6520
Vlower
p6521
atp6522
a(Vsub-woofer
p6523
(lp6524
Vremote
p6525
aVcontrolled
p6526
atp6527
a(Vhd mode
p6528
(lp6529
Vproper
p6530
atp6531
a(Vjunk
p6532
(lp6533
Vcomplete
p6534
atp6535
a(Vfreezing
p6536
(lp6537
Vfixed
p6538
atp6539
a(Vtroubleshooting guide
p6540
(lp6541
Vonline
p6542
atp6543
a(Vmess
p6544
(lp6545
Vcluttered
p6546
atp6547
a(Vfeature
p6548
(lp6549
Vlittle
p6550
atp6551
a(Vexpectation
p6552
(lp6553
Vreasonable
p6554
atp6555
a(Vcircuit board
p6556
(lp6557
Vmain
p6558
atp6559
a(VMac support
p6560
(lp6561
Vpoor
p6562
atp6563
a(Vcircle layout
p6564
(lp6565
Vdual
p6566
atp6567
a(VX10
p6568
(lp6569
Vhas
p6570
atp6571
a(Vrecommendation
p6572
(lp6573
Vis
p6574
atp6575
a(Vwriter
p6576
(lp6577
Vhad
p6578
atp6579
a(Vpatience
p6580
(lp6581
Veasy
p6582
atp6583
a(Vangle
p6584
(lp6585
Vwider
p6586
atp6587
a(Vconsumer devicesI
p6588
(lp6589
Velectronic
p6590
atp6591
a(Vson
p6592
(lp6593
Vexperienced
p6594
atp6595
a(Vsize
p6596
(lp6597
Vstandard
p6598
aVremote
p6599
atp6600
a(Vbacklighting
p6601
(lp6602
Vwonderful
p6603
atp6604
aL135L
tp6605
sVB0007N55NM
p6606
((lp6607
(Vquality
p6608
(lp6609
Vseems
p6610
aVaudio
p6611
aVloud
p6612
aVexcellent
p6613
aVimpressive
p6614
aVdecent
p6615
aVpositive
p6616
aVgood
p6617
aVBad
p6618
aVSound
p6619
aVlow
p6620
aVpoor
p6621
aVpoor
p6622
aVgreat
p6623
aVbad
p6624
aVgreat
p6625
aVseemed
p6626
aVpoor
p6627
aVGood
p6628
aVincludes
p6629
aVgood
p6630
aVgood
p6631
aVTerrible
p6632
aVlacks
p6633
aVgreat
p6634
aVpoorest
p6635
aVbest
p6636
aVGood
p6637
aVfit
p6638
aVgood
p6639
aVgreat
p6640
aVgreat
p6641
aVaudio
p6642
atp6643
a(Vsound
p6644
(lp6645
VGreat
p6646
aVBalanced
p6647
aVairy
p6648
aVamazing
p6649
aVtreble
p6650
aVadequate
p6651
aVclearer
p6652
aVthing
p6653
aVExcellent
p6654
aVannoying
p6655
aVfull
p6656
aVgreatest
p6657
aVclear
p6658
aVgreat
p6659
aVgood
p6660
aVbetter
p6661
aVgreat
p6662
aVcrisp
p6663
aVstrong
p6664
aVclear
p6665
atp6666
a(Vcord
p6667
(lp6668
Vlong
p6669
aVlong
p6670
aVlength
p6671
aVlong
p6672
aVlong
p6673
aVway
p6674
aVstarted
p6675
aVcame
p6676
aVLONG
p6677
aVfeet
p6678
aVlong
p6679
aVget
p6680
aVlong
p6681
aVenough
p6682
aVbit
p6683
aVpleased
p6684
atp6685
a(Vbass
p6686
(lp6687
Vdecent
p6688
aVhigh
p6689
aVawesome
p6690
aVdeep
p6691
aVsmooth
p6692
aVcome
p6693
aVis
p6694
aVmore
p6695
aVdeep
p6696
aVall
p6697
aVloud
p6698
aVincredible
p6699
atp6700
a(Vthing
p6701
(lp6702
Vannoying
p6703
aVis
p6704
aVmain
p6705
aVquality
p6706
aVbad
p6707
aVamazing
p6708
aVgood
p6709
atp6710
a(Vplastic
p6711
(lp6712
Vfeels
p6713
aVresistent
p6714
aVhard
p6715
aVhard
p6716
aVcheap
p6717
atp6718
a(Vheadphone
p6719
(lp6720
Vhave
p6721
aVstandard
p6722
aVplugs
p6723
aVsmaller
p6724
aVgo
p6725
aVset
p6726
aVGarbage
p6727
atp6728
a(Vvolume
p6729
(lp6730
Vcomfortable
p6731
aVmore
p6732
aVlow
p6733
aVextreme
p6734
aVwork
p6735
atp6736
a(Vjob
p6737
(lp6738
Vbetter
p6739
aVbuild
p6740
aVGreat
p6741
aVfine
p6742
aVgreat
p6743
aVbetter
p6744
atp6745
a(Vsomething
p6746
(lp6747
Vdifferent
p6748
aVhappening
p6749
aVcheap
p6750
aVprofessional
p6751
atp6752
a(Vrange
p6753
(lp6754
Vclear
p6755
aVmid
p6756
aVoverall
p6757
aVexcellent
p6758
aVmaximum
p6759
atp6760
a(Vlength
p6761
(lp6762
Vperfect
p6763
aVlong
p6764
aVideal
p6765
aVGood
p6766
atp6767
a(Vprice
p6768
(lp6769
VGreat
p6770
aVwonderful
p6771
aVgone
p6772
aVraised
p6773
aVhigh
p6774
atp6775
a(Vside
p6776
(lp6777
Vwent
p6778
aVgo
p6779
aVgood
p6780
aVwork
p6781
atp6782
a(Vtreble
p6783
(lp6784
Vnice
p6785
aVpresent
p6786
aVmuch
p6787
atp6788
a(Vheadband
p6789
(lp6790
Vstarts
p6791
aVleave
p6792
aVbroke
p6793
atp6794
a(Vvalue
p6795
(lp6796
Vgreat
p6797
aVgreat
p6798
aVexcellent
p6799
atp6800
a(Vchord
p6801
(lp6802
VLong
p6803
aVnice
p6804
aVa
p6805
aVduty
p6806
aVlong
p6807
atp6808
a(Vanyone
p6809
(lp6810
Vallows
p6811
aVseeking
p6812
aVbuy
p6813
atp6814
a(Veveryone
p6815
(lp6816
Vknows
p6817
aVsaying
p6818
aVwear
p6819
atp6820
a(Vpair
p6821
(lp6822
Vbroke
p6823
aVfifth
p6824
aVcurrent
p6825
aVbreak
p6826
aVcomes
p6827
aVold
p6828
aVcheap
p6829
atp6830
a(Visolation
p6831
(lp6832
Vperfect
p6833
aVgood
p6834
aVis
p6835
aVgood
p6836
atp6837
a(Vbuy
p6838
(lp6839
Vbad
p6840
aVgood
p6841
aVgood
p6842
atp6843
a(Vproduct
p6844
(lp6845
Vamazing
p6846
aVamazing
p6847
aVgreat
p6848
atp6849
a(Vtime
p6850
(lp6851
Vshipping
p6852
aVfast
p6853
aVlong
p6854
atp6855
a(Vmusic
p6856
(lp6857
Voriented
p6858
aVgood
p6859
aVsounded
p6860
atp6861
a(Vcable
p6862
(lp6863
Vis
p6864
aVconfortable
p6865
aVlong
p6866
atp6867
a(Vnoise
p6868
(lp6869
Vfancy
p6870
aVnoticeable
p6871
aVstatic
p6872
aVis
p6873
atp6874
a(Vdownside
p6875
(lp6876
Vbass
p6877
aVonly
p6878
aVis
p6879
atp6880
a(Vear
p6881
(lp6882
Ventire
p6883
aVfitting
p6884
atp6885
a(Vimaging
p6886
(lp6887
Vgood
p6888
aVvocabulary
p6889
atp6890
a(Vlistening
p6891
(lp6892
Vportable
p6893
aVgeneral
p6894
atp6895
a(VSound
p6896
(lp6897
Vhas
p6898
aVairy
p6899
aVclean
p6900
atp6901
a(Vname
p6902
(lp6903
VGibbs
p6904
aVheadphones
p6905
atp6906
a(Vheadset
p6907
(lp6908
Vfeels
p6909
aVmakes
p6910
atp6911
a(Vpoint
p6912
(lp6913
Vnext
p6914
aVMost
p6915
atp6916
a(Vwire
p6917
(lp6918
VLong
p6919
aVlong
p6920
atp6921
a(Vhead
p6922
(lp6923
Vlooks
p6924
aVbig
p6925
atp6926
a(Vfidelity
p6927
(lp6928
Vunmatched
p6929
aVhave
p6930
atp6931
a(Vmon
p6932
(lp6933
Vdrum
p6934
atp6935
a(Vbuyer
p6936
(lp6937
Vaverage
p6938
atp6939
a(Vaudio equipment
p6940
(lp6941
Vexpensive
p6942
atp6943
a(Vplug
p6944
(lp6945
Vplugs
p6946
atp6947
a(Vdeal
p6948
(lp6949
Vwas
p6950
atp6951
a(Vwind
p6952
(lp6953
Vblow
p6954
atp6955
a(Vapplication
p6956
(lp6957
Vpro
p6958
atp6959
a(Vinch
p6960
(lp6961
Vthats
p6962
atp6963
a(Vreason
p6964
(lp6965
Vonly
p6966
atp6967
a(Vheadphones.EDIT
p6968
(lp6969
Vinexpensive
p6970
atp6971
a(Vtuning guitar
p6972
(lp6973
Velectric
p6974
atp6975
a(Vguitar
p6976
(lp6977
Vold
p6978
atp6979
a(Vconnection
p6980
(lp6981
Vstopped
p6982
atp6983
a(Vresearch
p6984
(lp6985
Vquick
p6986
atp6987
a(Veffort
p6988
(lp6989
Vhonest
p6990
atp6991
a(Vplace
p6992
(lp6993
Vsafe
p6994
atp6995
a(Vupgrade
p6996
(lp6997
Vdefinite
p6998
atp6999
a(VLong cord
p7000
(lp7001
Vheavy
p7002
atp7003
a(VOutlet store
p7004
(lp7005
Vhad
p7006
atp7007
a(Vpart
p7008
(lp7009
Vtop
p7010
aVplastic
p7011
atp7012
a(Vcompany
p7013
(lp7014
Vmakes
p7015
atp7016
a(Vvolume way
p7017
(lp7018
Vipod
p7019
atp7020
a(Vmidrange
p7021
(lp7022
Vdistant
p7023
atp7024
a(Vemergency replacement
p7025
(lp7026
Vcheap
p7027
atp7028
a(Vspeaker
p7029
(lp7030
VCheap
p7031
aVcheap
p7032
aVcheap
p7033
atp7034
a(Vslack
p7035
(lp7036
Venough
p7037
atp7038
a(Vimd
p7039
(lp7040
Vnoticeable
p7041
atp7042
a(Vfreedom
p7043
(lp7044
Vrelative
p7045
atp7046
a(VComfort
p7047
(lp7048
Vmust
p7049
atp7050
a(Vuse
p7051
(lp7052
Vprolonged
p7053
atp7054
a(Vnothing earth
p7055
(lp7056
Vshattering
p7057
atp7058
a(Vfrequency
p7059
(lp7060
Vyield
p7061
atp7062
a(Vfitting
p7063
(lp7064
Vmore
p7065
atp7066
a(Vsplitter
p7067
(lp7068
Vaudio
p7069
atp7070
a(Vfrequency response
p7071
(lp7072
Vgreat
p7073
atp7074
a(Vvolume midrange
p7075
(lp7076
Vmodest
p7077
atp7078
a(Vstudio edition
p7079
(lp7080
Vsony
p7081
atp7082
a(Vpreference
p7083
(lp7084
Vlistening
p7085
atp7086
a(Vheadphones.The quality
p7087
(lp7088
Vplastic
p7089
atp7090
a(Vmusic listening
p7091
(lp7092
Vcasual
p7093
atp7094
a(Vpackage
p7095
(lp7096
Vcheap
p7097
atp7098
a(Vgame mode
p7099
(lp7100
Vplay
p7101
atp7102
a(Vrecording
p7103
(lp7104
Vmusical
p7105
atp7106
a(Vabuse.I
p7107
(lp7108
Vregular
p7109
atp7110
a(Vsound card
p7111
(lp7112
Vhigh
p7113
atp7114
a(Vseat lol
p7115
(lp7116
Vback
p7117
atp7118
a(Vcable length
p7119
(lp7120
Vlong
p7121
atp7122
a(Vcost
p7123
(lp7124
Vlow
p7125
atp7126
a(Vft.
p7127
(lp7128
Vgot
p7129
atp7130
a(Vusage
p7131
(lp7132
Vlight
p7133
atp7134
a(Vperson
p7135
(lp7136
Vthird
p7137
aVconnect
p7138
atp7139
a(Vperiod
p7140
(lp7141
Vextended
p7142
atp7143
a(Vtruck
p7144
(lp7145
Vpowerful
p7146
aVget
p7147
atp7148
a(Vheadphone frame
p7149
(lp7150
Vfeel
p7151
atp7152
a(Vabuse
p7153
(lp7154
Vmuch
p7155
atp7156
a(Vweight
p7157
(lp7158
Vbothered
p7159
atp7160
a(Vamount
p7161
(lp7162
Vdecent
p7163
atp7164
a(Vside cable
p7165
(lp7166
VDual
p7167
atp7168
a(Vlesson
p7169
(lp7170
Vlearned
p7171
atp7172
a(Vcare ofCONS
p7173
(lp7174
Vtaken
p7175
atp7176
a(Vcustom building
p7177
(lp7178
Vaudio
p7179
atp7180
a(Vdiscomfort
p7181
(lp7182
Vutmost
p7183
atp7184
a(Vstep
p7185
(lp7186
Vgiant
p7187
atp7188
a(Vequalizer
p7189
(lp7190
Vproper
p7191
atp7192
a(Vplayer
p7193
(lp7194
Vportable
p7195
atp7196
a(Vfoam padding
p7197
(lp7198
Vencases
p7199
atp7200
a(Vheadphone jack
p7201
(lp7202
Vstandard
p7203
atp7204
a(Vadapter
p7205
(lp7206
Vis
p7207
aVlarge
p7208
aVfat
p7209
aVnormal
p7210
atp7211
a(Vfeeling
p7212
(lp7213
VCheap
p7214
atp7215
a(Vsource
p7216
(lp7217
Vgood
p7218
atp7219
a(Vheadphones.Comfort
p7220
(lp7221
Vdurable
p7222
atp7223
a(Vpunto
p7224
(lp7225
Vun
p7226
atp7227
a(Vgrip
p7228
(lp7229
Vnice
p7230
atp7231
a(Vpadding
p7232
(lp7233
Vsoft
p7234
atp7235
a(Vstar performance
p7236
(lp7237
Vgood
p7238
atp7239
a(Vnoise technology
p7240
(lp7241
Vcanceling
p7242
atp7243
a(Vdifference
p7244
(lp7245
Vbig
p7246
aVwas
p7247
atp7248
a(Vquality set
p7249
(lp7250
Vprofessional
p7251
atp7252
a(Vconstruction
p7253
(lp7254
Vgood
p7255
aVactual
p7256
aVsuffer
p7257
atp7258
a(Vreplacement
p7259
(lp7260
Vgets
p7261
atp7262
a(Vsignal
p7263
(lp7264
Vmakes
p7265
atp7266
a(VSheriff
p7267
(lp7268
Vyear
p7269
aVold
p7270
atp7271
a(Vband recording
p7272
(lp7273
Vbig
p7274
atp7275
a(Vkeyboard
p7276
(lp7277
Vaccept
p7278
atp7279
a(Vreview.Overall
p7280
(lp7281
Vproper
p7282
aVaudio
p7283
atp7284
a(Vstage placement
p7285
(lp7286
Vproper
p7287
atp7288
a(Vcord btw
p7289
(lp7290
Vtangled
p7291
atp7292
a(Vfact
p7293
(lp7294
Vmeans
p7295
atp7296
a(VXD100
p7297
(lp7298
Vbetter
p7299
atp7300
a(Vlevel
p7301
(lp7302
Vnice
p7303
atp7304
a(Vnote
p7305
(lp7306
Vlow
p7307
atp7308
a(Vnothing playing
p7309
(lp7310
Vis
p7311
atp7312
a(Vmm
p7313
(lp7314
Vfree
p7315
atp7316
a(Vkind
p7317
(lp7318
VDJs
p7319
atp7320
a(Vquality sound
p7321
(lp7322
VGood
p7323
aVfits
p7324
atp7325
a(Vtechno
p7326
(lp7327
Voveremphasize
p7328
atp7329
a(Vway
p7330
(lp7331
Vgood
p7332
atp7333
a(Vbass response
p7334
(lp7335
Vpoor
p7336
atp7337
a(V;-RRB-
p7338
(lp7339
Vsmall
p7340
atp7341
a(Vsony
p7342
(lp7343
Vmakes
p7344
atp7345
a(Vcomplaint
p7346
(lp7347
Vonly
p7348
aVw
p7349
atp7350
a(Vduty
p7351
(lp7352
Vheavy
p7353
atp7354
a(Vset
p7355
(lp7356
Vcheap
p7357
atp7358
a(Vaudio
p7359
(lp7360
Vclass
p7361
atp7362
a(Vfit
p7363
(lp7364
VComfortable
p7365
atp7366
a(Vquestion
p7367
(lp7368
Vonly
p7369
aVis
p7370
atp7371
a(Vwire/cord
p7372
(lp7373
Vlong
p7374
atp7375
a(Vnoise insulation
p7376
(lp7377
Vefficient
p7378
atp7379
a(Vend headphone
p7380
(lp7381
Vhigh
p7382
atp7383
a(Vpower
p7384
(lp7385
Vmore
p7386
aVavailable
p7387
atp7388
a(Vgripe
p7389
(lp7390
Vonly
p7391
aVplastic
p7392
atp7393
a(Vbass sound
p7394
(lp7395
Vpresent
p7396
aVlittle
p7397
atp7398
a(Voutput
p7399
(lp7400
Vban
p7401
atp7402
a(Vbass sound-great
p7403
(lp7404
Vdecent
p7405
atp7406
a(Vitem
p7407
(lp7408
Vgood
p7409
atp7410
a(Vcomfort
p7411
(lp7412
Vvital
p7413
atp7414
a(Vmerchandise
p7415
(lp7416
Vretail
p7417
atp7418
a(Vmanufacturing
p7419
(lp7420
Vcheap
p7421
atp7422
a(Vdepth
p7423
(lp7424
Vmuch
p7425
atp7426
a(Vtranscription
p7427
(lp7428
Vmedical
p7429
atp7430
a(Vhearing quality
p7431
(lp7432
Vhigher
p7433
atp7434
a(VIMHO
p7435
(lp7436
Vfeatures
p7437
atp7438
a(VSony MDR-V250s
p7439
(lp7440
Vexpensive
p7441
atp7442
a(Vmodel
p7443
(lp7444
Vold
p7445
atp7446
a(Vaudio jack
p7447
(lp7448
Vmodern
p7449
atp7450
a(Vmaterials.When
p7451
(lp7452
Vcheap
p7453
aVcheap
p7454
atp7455
a(Veverybody
p7456
(lp7457
Vlisten
p7458
atp7459
a(Vexperience
p7460
(lp7461
Vbad
p7462
atp7463
a(Vbox
p7464
(lp7465
Vopen
p7466
atp7467
a(VQUALITY.Having
p7468
(lp7469
VLASTING
p7470
aVsaid
p7471
atp7472
a(Vfeature
p7473
(lp7474
Vimportant
p7475
aVcord
p7476
atp7477
a(Vinformation
p7478
(lp7479
Vonline
p7480
aVlists
p7481
atp7482
a(Vid
p7483
(lp7484
Vtry
p7485
atp7486
a(VHUGE difference.I
p7487
(lp7488
Vrecommend
p7489
atp7490
a(Vmaterial
p7491
(lp7492
Vlooks
p7493
atp7494
a(Vline
p7495
(lp7496
Vprofessional
p7497
atp7498
a(Vpurchase
p7499
(lp7500
VOK
p7501
atp7502
a(Voff.I
p7503
(lp7504
Vpair
p7505
atp7506
a(Vcare ofchord
p7507
(lp7508
Vtaken
p7509
aVlong
p7510
atp7511
a(Vbass.Now
p7512
(lp7513
Vdefinite
p7514
atp7515
a(Vhave.The unit
p7516
(lp7517
Vhave
p7518
atp7519
a(Vocean
p7520
(lp7521
Vnegative
p7522
atp7523
a(Voption
p7524
(lp7525
Vbad
p7526
atp7527
a(VVOLUME CONTROL.Two
p7528
(lp7529
Vfeatures
p7530
atp7531
a(Vplaticky.OVER ALL
p7532
(lp7533
VQuite
p7534
atp7535
a(Vpick
p7536
(lp7537
Vgreat
p7538
atp7539
a(Vdraw
p7540
(lp7541
Vhigh
p7542
atp7543
a(VApple fan
p7544
(lp7545
Vhuge
p7546
atp7547
a(Vson
p7548
(lp7549
VSheriff
p7550
atp7551
a(Vpurchasing
p7552
(lp7553
Vworth
p7554
atp7555
aL80L
tp7556
sVB00007LTBA
p7557
((lp7558
(Vrouter
p7559
(lp7560
Vconnect
p7561
aVdrops
p7562
aVgreat
p7563
aVkeep
p7564
aVcheap
p7565
aVreboots
p7566
aVfailed
p7567
aVwork
p7568
aVexcellent
p7569
aVown
p7570
aVgood
p7571
aVexcelent
p7572
aVrebooting
p7573
aVTURKEY
p7574
aVgood
p7575
aVsingle
p7576
aVhad
p7577
aVwired
p7578
aVLinksys
p7579
aVwork
p7580
aVlocks
p7581
aVwork
p7582
aVfroze
p7583
aVfunctions
p7584
aVtook
p7585
aVfloor
p7586
aVworked
p7587
aVDOES
p7588
aVworking
p7589
aVconnect
p7590
aVhums
p7591
aVold
p7592
aVrebooting
p7593
aVlocated
p7594
aVsupport
p7595
aVslower
p7596
aVgoing
p7597
aVold
p7598
aVbag
p7599
aVreboots
p7600
aVreboots
p7601
aVworks
p7602
aVreliable
p7603
aVgood
p7604
aVend
p7605
atp7606
a(Vfirmware
p7607
(lp7608
Vupgraded
p7609
aVsingle
p7610
aVUpgraded
p7611
aVlate
p7612
aVload
p7613
aVfuture
p7614
aVsupport
p7615
aVintroduce
p7616
aVinstalled
p7617
aVversion
p7618
aVlatest
p7619
aVupdate
p7620
aVupdated
p7621
aVupdate
p7622
aVlatest
p7623
aVlatest
p7624
aVlatest
p7625
atp7626
a(Vrange
p7627
(lp7628
Vlimited
p7629
aVpoor
p7630
aVclose
p7631
aVGreat
p7632
aVeasy
p7633
aVeasy
p7634
aVsuch
p7635
aVpoor
p7636
aVgreat
p7637
aVgreat
p7638
aVgreat
p7639
aVfind
p7640
aVstaying
p7641
aVgood
p7642
aVgood
p7643
aVgood
p7644
aVsignal
p7645
aVpoor
p7646
aVexcellent
p7647
aVbad
p7648
aVbetter
p7649
atp7650
a(Vsignal
p7651
(lp7652
Vgoes
p7653
aVGREAT
p7654
aVgood
p7655
aVstrong
p7656
aVexcellent
p7657
aVstrong
p7658
aVgood
p7659
aVbetter
p7660
aVbetter
p7661
aVdo
p7662
aVsingle
p7663
aVfull
p7664
aVstrong
p7665
aVstrong
p7666
aVeverywhere
p7667
aVbecame
p7668
aVgood
p7669
atp7670
a(Vconnection
p7671
(lp7672
Vpoor
p7673
aVsimple
p7674
aVgood
p7675
aVdrop
p7676
aVdropped
p7677
aVworks
p7678
aVsustains
p7679
aVdrops
p7680
aVdrop
p7681
aVremote
p7682
aVinstable
p7683
aVwired
p7684
atp7685
a(Vsetup
p7686
(lp7687
Vsimple
p7688
aVhad
p7689
aVbasic
p7690
aVmanual
p7691
aVeasy
p7692
aVeasy
p7693
aVoverall
p7694
aVstraight
p7695
aVsimple
p7696
aVeasy
p7697
aVprice
p7698
aVeasy
p7699
aVadditional
p7700
aVspecial
p7701
atp7702
a(Vspeed
p7703
(lp7704
VExcellent
p7705
aVfast
p7706
aVraw
p7707
aVGreat
p7708
aVfull
p7709
aVexcelent
p7710
aVhas
p7711
aVhighest
p7712
aVOverall
p7713
aVfast
p7714
aVtop
p7715
aVexcellent
p7716
atp7717
a(Vproduct
p7718
(lp7719
Vgreat
p7720
aVappears
p7721
aVsimple
p7722
aVprice
p7723
aVawful
p7724
aVhas
p7725
aVgood
p7726
aVgreat
p7727
aVgreat
p7728
aVrecommended
p7729
atp7730
a(Vreason
p7731
(lp7732
Vgood
p7733
aVonly
p7734
aVgood
p7735
aVmain
p7736
aVexplicable
p7737
aVis
p7738
aVonly
p7739
aVapparent
p7740
aVgiven
p7741
atp7742
a(Vunit
p7743
(lp7744
Vvintage
p7745
aVolder
p7746
aVworking
p7747
aVbad
p7748
aVreplaced
p7749
aVreliable
p7750
aVterrible
p7751
aVgave
p7752
atp7753
a(Vnetwork
p7754
(lp7755
Vsecured
p7756
aVwired
p7757
aVrunning
p7758
aVinternal
p7759
aVentire
p7760
aVavailable
p7761
atp7762
a(Veverything
p7763
(lp7764
Vworked
p7765
aVhelped
p7766
aVworked
p7767
aVworking
p7768
aVreplug
p7769
aVran
p7770
atp7771
a(Vthing
p7772
(lp7773
VSame
p7774
aVhave
p7775
aVFirst
p7776
aVwas
p7777
aVsolid
p7778
aVis
p7779
atp7780
a(Vhouse
p7781
(lp7782
Vdifferent
p7783
aVwhole
p7784
aVbigger
p7785
aVentire
p7786
aVaverage
p7787
aVwhole
p7788
aVcovered
p7789
atp7790
a(VDI-624
p7791
(lp7792
Vrefurbished
p7793
aVworking
p7794
aVexception
p7795
aVlocated
p7796
aVRouter
p7797
atp7798
a(Vperformance
p7799
(lp7800
Vimproved
p7801
aVincredible
p7802
aVGreat
p7803
aVfourth
p7804
aVoverall
p7805
atp7806
a(Vtech support
p7807
(lp7808
Vsaid
p7809
aVfaltering
p7810
aVabout
p7811
aVhelp
p7812
aVdifficult
p7813
atp7814
a(Vissue
p7815
(lp7816
Vunit
p7817
aVresolve
p7818
aVonly
p7819
aVis
p7820
aVtook
p7821
aVknown
p7822
atp7823
a(Vproblem
p7824
(lp7825
Vis
p7826
aVridiculous
p7827
aVis
p7828
aVrouter
p7829
aVsuch
p7830
aVcommon
p7831
atp7832
a(Vtime
p7833
(lp7834
Vlong
p7835
aVshort
p7836
aVreviews
p7837
aVentire
p7838
atp7839
a(Vpart
p7840
(lp7841
Vgood
p7842
aVseems
p7843
aVmost
p7844
aVmost
p7845
aVhardest
p7846
aVfiguring
p7847
atp7848
a(Vyear
p7849
(lp7850
Vabout
p7851
aVover
p7852
aVabout
p7853
aVover
p7854
atp7855
a(Vdevice
p7856
(lp7857
Vtake
p7858
aVrequire
p7859
aVhorrible
p7860
aVeasy
p7861
atp7862
a(Vfloor
p7863
(lp7864
Vdifferent
p7865
aVtop
p7866
aVthird
p7867
aVtop
p7868
atp7869
a(Vprice
p7870
(lp7871
Vsmall
p7872
aVbetter
p7873
aVgreat
p7874
aVexcellent
p7875
atp7876
a(Vtech
p7877
(lp7878
Vexperienced
p7879
aVpatient
p7880
aVhelpful
p7881
atp7882
a(Vcomputer
p7883
(lp7884
Vhooked
p7885
aVtime
p7886
aVmain
p7887
atp7888
a(Vcustomer service
p7889
(lp7890
VGREAT
p7891
aVgets
p7892
aVbecome
p7893
atp7894
a(Vsupport
p7895
(lp7896
Vbe
p7897
aVSUCKS
p7898
aVtechnical
p7899
aVhas
p7900
atp7901
a(Vinstallation
p7902
(lp7903
Vsimple
p7904
aVeasy
p7905
aVsnap
p7906
atp7907
a(Vinternet connection
p7908
(lp7909
Vpresent
p7910
aVappears
p7911
aVhardwired
p7912
aVuseless
p7913
atp7914
a(Vconfiguration
p7915
(lp7916
Vdifficult
p7917
aVintuitive
p7918
aVbetter
p7919
atp7920
a(Vway
p7921
(lp7922
Vonly
p7923
aVis
p7924
aVhave
p7925
aVonly
p7926
atp7927
a(Vexperience
p7928
(lp7929
Vpersonal
p7930
aVpersonal
p7931
aVmine
p7932
atp7933
a(Vsoftware
p7934
(lp7935
Vhas
p7936
aVgood
p7937
aVlatest
p7938
atp7939
a(Vdeal
p7940
(lp7941
Vcheap
p7942
aVbig
p7943
aVgood
p7944
atp7945
a(Vuser
p7946
(lp7947
Vgoes
p7948
aVexperienced
p7949
atp7950
a(Vnone
p7951
(lp7952
Vbrings
p7953
aVnecessary
p7954
atp7955
a(Vfeature
p7956
(lp7957
Vfull
p7958
aVset
p7959
aVundocumented
p7960
aVis
p7961
atp7962
a(Vg
p7963
(lp7964
Vextreme
p7965
aVbasic
p7966
atp7967
a(Vamount
p7968
(lp7969
Vleast
p7970
aVcompelling
p7971
aVsustained
p7972
atp7973
a(Vreview
p7974
(lp7975
Vhelpful
p7976
aVabove
p7977
aVperspective
p7978
atp7979
a(Vdocumentation
p7980
(lp7981
Vexcellent
p7982
aVis
p7983
atp7984
a(Vsomeone
p7985
(lp7986
Vcausing
p7987
aVchanged
p7988
atp7989
a(VDI-624 router
p7990
(lp7991
Vhorrid
p7992
aVdisconnects
p7993
atp7994
a(Vmoney
p7995
(lp7996
Vmore
p7997
aVmissing
p7998
atp7999
a(Vimprovement
p8000
(lp8001
Vvast
p8002
aVbig
p8003
atp8004
a(Videa
p8005
(lp8006
Vgood
p8007
aVwhole
p8008
atp8009
a(VSetup
p8010
(lp8011
Veasy
p8012
aVworks
p8013
atp8014
a(Vversion
p8015
(lp8016
Vdownloadable
p8017
aVlatest
p8018
atp8019
a(Vweb interface
p8020
(lp8021
Vmakes
p8022
aVeasy
p8023
atp8024
a(Vanything
p8025
(lp8026
Vserious
p8027
aVmore
p8028
atp8029
a(VLinksys router
p8030
(lp8031
Vconked
p8032
aVgood
p8033
aVstable
p8034
atp8035
a(Vinformation
p8036
(lp8037
Vimportant
p8038
aVrequired
p8039
atp8040
a(Vkind
p8041
(lp8042
Vprofessional
p8043
aVselling
p8044
atp8045
a(Vworkhorse
p8046
(lp8047
Vlittle
p8048
aVreliable
p8049
atp8050
a(Vanyone
p8051
(lp8052
Vhas
p8053
aVinterested
p8054
atp8055
a(Vimpression
p8056
(lp8057
Vlasting
p8058
aVis
p8059
atp8060
a(Vright
p8061
(lp8062
Vnext
p8063
aVfine
p8064
atp8065
a(Vlaptop
p8066
(lp8067
Vseem
p8068
aVworks
p8069
atp8070
a(Vcard
p8071
(lp8072
Vloses
p8073
aVmatching
p8074
atp8075
a(VDWL-G650
p8076
(lp8077
VPCCard
p8078
aVgets
p8079
atp8080
a(Voption
p8081
(lp8082
Vspecific
p8083
aVdesired
p8084
aVsure
p8085
aVcorrect
p8086
atp8087
a(Vluck
p8088
(lp8089
Vbad
p8090
aVgood
p8091
atp8092
a(Vmonth
p8093
(lp8094
Vabout
p8095
aVabout
p8096
atp8097
a(Vcard.When
p8098
(lp8099
Vreceiving
p8100
atp8101
a(Vpiece
p8102
(lp8103
Vdiscontinued
p8104
atp8105
a(VWPA security
p8106
(lp8107
VStrong
p8108
aVbreeze
p8109
atp8110
a(Vsystem
p8111
(lp8112
Vreliable
p8113
atp8114
a(Vfactory reset
p8115
(lp8116
Vfull
p8117
atp8118
a(Vhome network
p8119
(lp8120
Vexisting
p8121
aVwired
p8122
atp8123
a(Vjob
p8124
(lp8125
Vgood
p8126
atp8127
a(Vphone line
p8128
(lp8129
Vinterfering
p8130
atp8131
a(Vone
p8132
(lp8133
Vhas
p8134
atp8135
a(VDlink product
p8136
(lp8137
Vnotorious
p8138
atp8139
a(VBroadcast strength
p8140
(lp8141
Vstrong
p8142
atp8143
a(Vworked.What
p8144
(lp8145
Vblows
p8146
atp8147
a(Vdigit code
p8148
(lp8149
Vkey
p8150
atp8151
a(VNothing
p8152
(lp8153
Vhelps
p8154
atp8155
a(Vequipment
p8156
(lp8157
Vwork
p8158
atp8159
a(Vnetwork.Needless
p8160
(lp8161
Vlocal
p8162
atp8163
a(Vroom.The device
p8164
(lp8165
Vnext
p8166
atp8167
a(VInstallation
p8168
(lp8169
Vquick
p8170
atp8171
a(VFW
p8172
(lp8173
Vlatest
p8174
atp8175
a(Vshame
p8176
(lp8177
VWhat
p8178
atp8179
a(Vwire
p8180
(lp8181
Vhard
p8182
atp8183
a(Vprinter.While set-up
p8184
(lp8185
Vnetworked
p8186
atp8187
a(Vsetup process
p8188
(lp8189
Ventire
p8190
atp8191
a(Vsomething
p8192
(lp8193
Velse
p8194
atp8195
a(VSupport
p8196
(lp8197
Vnice
p8198
atp8199
a(Vphone
p8200
(lp8201
Vcordless
p8202
atp8203
a(Vago.Prior
p8204
(lp8205
Vrouter
p8206
atp8207
a(Vpage
p8208
(lp8209
Vadmin
p8210
atp8211
a(VMB
p8212
(lp8213
Vfew
p8214
atp8215
a(V:--RRB-
p8216
(lp8217
Vnormal
p8218
atp8219
a(Vreception
p8220
(lp8221
Vbad
p8222
atp8223
a(Vcards.So
p8224
(lp8225
Vdifferent
p8226
atp8227
a(Veffort
p8228
(lp8229
Vlittle
p8230
atp8231
a(Vbeta firmware
p8232
(lp8233
Vavailable
p8234
atp8235
a(Vjunk leftover
p8236
(lp8237
Vneeds
p8238
atp8239
a(Vpassword
p8240
(lp8241
Vadmin
p8242
aVgot
p8243
atp8244
a(Vsurprise
p8245
(lp8246
Vnice
p8247
atp8248
a(Vcustomer support
p8249
(lp8250
Vfree
p8251
aVplus
p8252
atp8253
a(Vupgrade
p8254
(lp8255
Vlast
p8256
atp8257
a(Vmoon
p8258
(lp8259
Vblue
p8260
atp8261
a(Vcoverage
p8262
(lp8263
Vless
p8264
atp8265
a(Vcompany
p8266
(lp8267
Vhas
p8268
atp8269
a(Vweb site
p8270
(lp8271
VCanadian
p8272
atp8273
a(Vproblems.The router
p8274
(lp8275
Vpast
p8276
atp8277
a(Vrev_C
p8278
(lp8279
Vhas
p8280
atp8281
a(Vextender DWL-G800AP
p8282
(lp8283
Vwork
p8284
atp8285
a(Vnetworking card
p8286
(lp8287
Vsupports
p8288
atp8289
a(Vsurfing experience
p8290
(lp8291
Vsmooth
p8292
atp8293
a(Vbrick house
p8294
(lp8295
Vlarge
p8296
atp8297
a(Vdepth.One note
p8298
(lp8299
Vsubstantial
p8300
aVfinal
p8301
atp8302
a(VConclusion
p8303
(lp8304
Vget
p8305
atp8306
a(Vtechnology
p8307
(lp8308
Vis
p8309
atp8310
a(Vpeoples company
p8311
(lp8312
Vmost
p8313
atp8314
a(Vshelf
p8315
(lp8316
Vbottom
p8317
atp8318
a(Vnetworking device
p8319
(lp8320
Vworst
p8321
atp8322
a(Vwork
p8323
(lp8324
Vwont
p8325
atp8326
a(Vswitch right
p8327
(lp8328
Vwired
p8329
atp8330
a(Vit.The problem
p8331
(lp8332
Vconfiguration
p8333
atp8334
a(Vpotential
p8335
(lp8336
Vfull
p8337
atp8338
a(Voffering
p8339
(lp8340
Vweak
p8341
atp8342
a(Vfile
p8343
(lp8344
Vsaved
p8345
atp8346
a(Vhost
p8347
(lp8348
Vwhole
p8349
atp8350
a(Vtrack record
p8351
(lp8352
Vawful
p8353
atp8354
a(Vserver built-in
p8355
(lp8356
Vwired
p8357
atp8358
a(Vmode
p8359
(lp8360
Vapplies
p8361
atp8362
a(Vlink
p8363
(lp8364
Vwork
p8365
atp8366
a(Vpositioning
p8367
(lp8368
Vcareful
p8369
atp8370
a(Vconnection wizard
p8371
(lp8372
Vnice
p8373
aVeasy
p8374
atp8375
a(Vprocess
p8376
(lp8377
Vtook
p8378
atp8379
a(Vposting.Now
p8380
(lp8381
Vunbiased
p8382
atp8383
a(Vweek
p8384
(lp8385
Vabout
p8386
atp8387
a(Vperformer
p8388
(lp8389
Vfast
p8390
atp8391
a(VD-link router
p8392
(lp8393
Vold
p8394
atp8395
a(Vcontrol
p8396
(lp8397
Vbroader
p8398
atp8399
a(Vknowledge
p8400
(lp8401
Vtroubleshooting
p8402
atp8403
a(Vbasis
p8404
(lp8405
Vregular
p8406
atp8407
a(Vantenna
p8408
(lp8409
Vsingle
p8410
atp8411
a(VI.P.
p8412
(lp8413
Vthank
p8414
atp8415
a(Vfirewall
p8416
(lp8417
Vhas
p8418
atp8419
a(Vhour
p8420
(lp8421
Vabout
p8422
atp8423
a(VSony Laptop
p8424
(lp8425
Vhad
p8426
atp8427
a(Vflaw
p8428
(lp8429
Vbig
p8430
atp8431
a(Vutility
p8432
(lp8433
Vown
p8434
aVsee
p8435
atp8436
a(Vplace
p8437
(lp8438
Vsmall
p8439
atp8440
a(Vease
p8441
(lp8442
Voverall
p8443
aVGREAT
p8444
atp8445
a(Vsignal strength
p8446
(lp8447
Vgreat
p8448
atp8449
a(Vtoolset
p8450
(lp8451
Vnice
p8452
atp8453
a(Vnotch performance
p8454
(lp8455
Vimmediate
p8456
aVtop
p8457
atp8458
a(Vbuilding software
p8459
(lp8460
Vjob
p8461
atp8462
a(Vchange
p8463
(lp8464
Vnice
p8465
atp8466
a(VSet-up
p8467
(lp8468
Vtook
p8469
atp8470
a(Vwife
p8471
(lp8472
Vgetting
p8473
atp8474
a(Vrouter page
p8475
(lp8476
Vadmin
p8477
atp8478
a(Vfeature list
p8479
(lp8480
Vexhaustive
p8481
atp8482
a(VMbps router
p8483
(lp8484
Vloses
p8485
aVold
p8486
aVslower
p8487
atp8488
a(Vvintage
p8489
(lp8490
Volder
p8491
atp8492
a(VC router
p8493
(lp8494
Vhave
p8495
atp8496
a(VLAN
p8497
(lp8498
Vfine
p8499
atp8500
a(Vdesktop
p8501
(lp8502
Vremote
p8503
atp8504
a(Vpurpose
p8505
(lp8506
Voriginal
p8507
atp8508
a(Vdirection
p8509
(lp8510
Vacurate
p8511
atp8512
a(Vbatch
p8513
(lp8514
Vbad
p8515
aVis
p8516
atp8517
a(Vreset routine
p8518
(lp8519
Vmonthly
p8520
aVraise
p8521
atp8522
a(VPCI card
p8523
(lp8524
Vfroze
p8525
atp8526
a(Vman
p8527
(lp8528
Vgrumpy
p8529
aVirriated
p8530
atp8531
a(Vsetup wizard
p8532
(lp8533
VDOA
p8534
atp8535
a(Vphone base
p8536
(lp8537
Vfoot
p8538
atp8539
a(Vmode.The unit
p8540
(lp8541
Vwired
p8542
atp8543
a(Vreboot
p8544
(lp8545
Vfrequent
p8546
aVfrequent
p8547
atp8548
a(Vmodel router.I
p8549
(lp8550
Vdifferent
p8551
aVhad
p8552
atp8553
a(V108mps adapter
p8554
(lp8555
Vmatching
p8556
atp8557
a(Vt
p8558
(lp8559
Vforget
p8560
atp8561
a(Vpcmcia card
p8562
(lp8563
Vmatching
p8564
atp8565
a(VGot ta
p8566
(lp8567
Vlove
p8568
atp8569
a(Vsite support
p8570
(lp8571
VExcellent
p8572
atp8573
a(Vservice
p8574
(lp8575
Vflawless
p8576
atp8577
a(VD-L
p8578
(lp8579
Vworks
p8580
atp8581
a(VDI-624c
p8582
(lp8583
Vwork
p8584
atp8585
a(VDHCP feature
p8586
(lp8587
Vstatic
p8588
atp8589
a(VD-Link system
p8590
(lp8591
Vperformed
p8592
atp8593
a(Vsetup problem
p8594
(lp8595
Vsimple
p8596
atp8597
a(Vnetwork product
p8598
(lp8599
Vworst
p8600
atp8601
a(Vfriend
p8602
(lp8603
Vset
p8604
aVcame
p8605
atp8606
a(VPC
p8607
(lp8608
Villiterate
p8609
atp8610
a(Vnetworking gear
p8611
(lp8612
Vbest
p8613
atp8614
a(Vcon
p8615
(lp8616
Vonly
p8617
aVis
p8618
atp8619
a(VDI-614
p8620
(lp8621
Vold
p8622
atp8623
a(VWorks fine
p8624
(lp8625
Venabled
p8626
atp8627
a(Vrelease
p8628
(lp8629
Vrecent
p8630
atp8631
a(Vminute call
p8632
(lp8633
Vneeded
p8634
atp8635
a(VDisclosure
p8636
(lp8637
VFull
p8638
atp8639
a(VDLINK
p8640
(lp8641
Vrefuses
p8642
atp8643
a(Vtransfer speed
p8644
(lp8645
Vfull
p8646
atp8647
a(Vconfiguration interface
p8648
(lp8649
Vexcellent
p8650
atp8651
a(Vnothing
p8652
(lp8653
Vmake
p8654
atp8655
a(Vkey
p8656
(lp8657
Vrandom
p8658
atp8659
a(Vguy
p8660
(lp8661
Vfront
p8662
atp8663
a(VWG111 adapter
p8664
(lp8665
VUSB
p8666
atp8667
a(Vbroadcasting channel
p8668
(lp8669
Vlatest
p8670
atp8671
a(Vswitch togeher
p8672
(lp8673
Vgeneral
p8674
atp8675
a(Vstory ft
p8676
(lp8677
Vsquare
p8678
atp8679
a(Vexchange
p8680
(lp8681
Vdo
p8682
atp8683
a(Vwep
p8684
(lp8685
Venabled
p8686
atp8687
a(V108mbps throughput
p8688
(lp8689
Vfull
p8690
atp8691
a(Vroute
p8692
(lp8693
Vdirect
p8694
atp8695
a(Vsetup guide
p8696
(lp8697
Vquick
p8698
aVwent
p8699
atp8700
a(Vcover
p8701
(lp8702
Vknow
p8703
atp8704
a(Vdlink card
p8705
(lp8706
Vcompatible
p8707
atp8708
a(Vbuffering
p8709
(lp8710
Vmore
p8711
aVdrops
p8712
atp8713
a(Vrouter upstairs
p8714
(lp8715
Vconnected
p8716
atp8717
a(Vbag
p8718
(lp8719
Vreal
p8720
atp8721
a(VRouter
p8722
(lp8723
Vpowerful
p8724
aVgets
p8725
atp8726
a(VConnection speed
p8727
(lp8728
Vrespectable
p8729
atp8730
a(Vbrands.There
p8731
(lp8732
Vmajor
p8733
atp8734
a(Vlookup problem
p8735
(lp8736
Vintermittent
p8737
atp8738
a(Vfirmware page
p8739
(lp8740
Vappear
p8741
atp8742
a(VXP home
p8743
(lp8744
Vrunning
p8745
atp8746
a(Vanswer
p8747
(lp8748
Vready
p8749
atp8750
a(Vwireless
p8751
(lp8752
Vdlink
p8753
atp8754
a(Vb router
p8755
(lp8756
Vreplacing
p8757
atp8758
a(VG
p8759
(lp8760
Vsuper
p8761
atp8762
a(Vrevision A/B
p8763
(lp8764
Vhas
p8765
atp8766
a(Vdaughters laptop
p8767
(lp8768
Vpicks
p8769
atp8770
a(Vpoint
p8771
(lp8772
VWhole
p8773
aVis
p8774
atp8775
a(Vat-home
p8776
(lp8777
Vsmall
p8778
atp8779
a(Vsuper-G card
p8780
(lp8781
Vget
p8782
atp8783
a(Vconnection speed
p8784
(lp8785
Vstable
p8786
atp8787
a(VSpeed
p8788
(lp8789
Vgreat
p8790
atp8791
a(Vmobility
p8792
(lp8793
Vmore
p8794
atp8795
a(Vreset
p8796
(lp8797
Vmanual
p8798
aVdid
p8799
atp8800
a(Vuser software
p8801
(lp8802
Vfriendly
p8803
atp8804
a(Vspeed decrease
p8805
(lp8806
Vnoticable
p8807
atp8808
a(Vstory
p8809
(lp8810
Vsingle
p8811
atp8812
a(Vmargin
p8813
(lp8814
Vfair
p8815
atp8816
a(VCustomer support
p8817
(lp8818
Vclueless
p8819
atp8820
a(Vswotch
p8821
(lp8822
Vinternal
p8823
atp8824
a(Vdidnt help
p8825
(lp8826
Vlatest
p8827
atp8828
a(VGigafast card
p8829
(lp8830
Vcheap
p8831
atp8832
a(Vrebate
p8833
(lp8834
Vcurrent
p8835
atp8836
a(Vguide
p8837
(lp8838
Vquick
p8839
atp8840
a(Vhelp
p8841
(lp8842
Vbig
p8843
atp8844
a(Vword
p8845
(lp8846
Vlast
p8847
atp8848
a(Vhome user
p8849
(lp8850
Vtypical
p8851
atp8852
a(VWPA-PSK
p8853
(lp8854
Vsecure
p8855
atp8856
a(Vrevision A
p8857
(lp8858
Vdefective
p8859
atp8860
a(Vno-no
p8861
(lp8862
Vbig
p8863
atp8864
a(Vmodem
p8865
(lp8866
Vinternal
p8867
atp8868
a(Vwebsite
p8869
(lp8870
Vinformative
p8871
atp8872
a(VEveryone
p8873
(lp8874
Vsays
p8875
atp8876
a(Vadaptor
p8877
(lp8878
VUSB
p8879
aVhooked
p8880
atp8881
a(VWAN link
p8882
(lp8883
Vdrop
p8884
atp8885
a(Vsupport website
p8886
(lp8887
VEXCELLENT
p8888
atp8889
a(VPrice
p8890
(lp8891
Vgreat
p8892
atp8893
a(Vwizard
p8894
(lp8895
Vguide
p8896
atp8897
a(Vview
p8898
(lp8899
Vclear
p8900
atp8901
a(VLinkSys router
p8902
(lp8903
Vrequires
p8904
atp8905
a(VWPA mode
p8906
(lp8907
Vunstable
p8908
atp8909
a(Vg protocol
p8910
(lp8911
Vmore
p8912
atp8913
a(VWAP device
p8914
(lp8915
Volder
p8916
atp8917
a(Vday
p8918
(lp8919
Vfiled
p8920
atp8921
a(VADSL modem
p8922
(lp8923
Vworks
p8924
atp8925
a(Vtoll support
p8926
(lp8927
Vfree
p8928
atp8929
a(Vtechnician
p8930
(lp8931
Vtold
p8932
atp8933
a(Vtrouble
p8934
(lp8935
Vmuch
p8936
atp8937
a(Vwish
p8938
(lp8939
Vretrospect
p8940
atp8941
a(Vwell.I
p8942
(lp8943
Vimpressed
p8944
atp8945
a(Vvendor
p8946
(lp8947
Vpopular
p8948
atp8949
a(Vbackup router
p8950
(lp8951
VNIGHTMARE
p8952
atp8953
a(VDLink router
p8954
(lp8955
Vold
p8956
atp8957
a(Vbooklet
p8958
(lp8959
Vincluded
p8960
atp8961
a(VPSK key
p8962
(lp8963
Vsimple
p8964
aVgenerate
p8965
atp8966
a(Vlevel
p8967
(lp8968
Vlow
p8969
atp8970
a(Vfirmware/driver
p8971
(lp8972
Vnewest
p8973
atp8974
a(Vpackaging
p8975
(lp8976
Vlarger
p8977
aVsmaller
p8978
atp8979
a(Vnovice
p8980
(lp8981
Vable
p8982
atp8983
a(Vpre-sales staff
p8984
(lp8985
Vreferred
p8986
atp8987
a(VSSID broadcast
p8988
(lp8989
Vdisabled
p8990
atp8991
a(Vproducts.Anyway
p8992
(lp8993
Vmost
p8994
atp8995
a(VLinksys code
p8996
(lp8997
Vofficial
p8998
aVfails
p8999
atp9000
a(Vencryption format
p9001
(lp9002
Vold
p9003
atp9004
a(Vswitch portion
p9005
(lp9006
Vwired
p9007
atp9008
a(Vprinter
p9009
(lp9010
VUSB
p9011
aVconnected
p9012
atp9013
a(Vfirmware upgrade
p9014
(lp9015
Vlatest
p9016
atp9017
a(VDLink
p9018
(lp9019
Vdoes
p9020
atp9021
a(Vspeed.Before
p9022
(lp9023
Vgreat
p9024
atp9025
a(Vwifi security
p9026
(lp9027
Vbasic
p9028
atp9029
a(Vresetting
p9030
(lp9031
Vneeded
p9032
aVwork
p9033
atp9034
a(VEthernet card
p9035
(lp9036
Vregular
p9037
atp9038
a(Vsolution
p9039
(lp9040
Vmanual
p9041
atp9042
a(VFirmware
p9043
(lp9044
Vsupport
p9045
atp9046
a(VWireless connection
p9047
(lp9048
Vworked
p9049
atp9050
a(Vmodel
p9051
(lp9052
Vdifferent
p9053
atp9054
a(VPPPoE
p9055
(lp9056
Vdisconnect
p9057
atp9058
a(Vpoint/wi-fi router
p9059
(lp9060
Vworks
p9061
atp9062
a(Vsystem.Great stuff
p9063
(lp9064
Ventire
p9065
aVsuper
p9066
atp9067
a(Vpacket
p9068
(lp9069
Vsingle
p9070
atp9071
a(Vtry
p9072
(lp9073
Vdissapointing
p9074
atp9075
a(Vstrike
p9076
(lp9077
Vcounter
p9078
atp9079
a(VPCCard
p9080
(lp9081
Vgood
p9082
atp9083
a(Vpage.Still kinda
p9084
(lp9085
Vadmin
p9086
atp9087
a(VEverything
p9088
(lp9089
Vis
p9090
atp9091
a(Vnetwork.Am
p9092
(lp9093
Vtrue
p9094
aVhappy
p9095
atp9096
a(VPoor support
p9097
(lp9098
Vtechnical
p9099
atp9100
a(Vyears.The
p9101
(lp9102
VGood
p9103
atp9104
a(Veverthing
p9105
(lp9106
Vsuprisingly
p9107
atp9108
a(Vplus
p9109
(lp9110
Vgreat
p9111
atp9112
a(Vbit
p9113
(lp9114
Vlittle
p9115
atp9116
a(VG mode
p9117
(lp9118
Vsuper
p9119
atp9120
a(Vdi-624
p9121
(lp9122
Vstellar
p9123
atp9124
a(Vsituation
p9125
(lp9126
Vworse
p9127
atp9128
a(Vfine
p9129
(lp9130
Vconnected
p9131
aVshowed
p9132
atp9133
a(Vsignal problem
p9134
(lp9135
Vwent
p9136
atp9137
a(Vmanual
p9138
(lp9139
Vhelp
p9140
atp9141
a(Vsuccess
p9142
(lp9143
Vgreat
p9144
atp9145
a(Vline
p9146
(lp9147
Vhad
p9148
atp9149
a(Vpurchase
p9150
(lp9151
Vgood
p9152
atp9153
a(Vrespond
p9154
(lp9155
Vdoesnt
p9156
aVhappy
p9157
atp9158
a(VCisco router
p9159
(lp9160
Vsuperior
p9161
atp9162
a(Vlot
p9163
(lp9164
Vgive
p9165
atp9166
a(Vrouter reboot
p9167
(lp9168
Vconstant
p9169
aVproblem
p9170
atp9171
a(Vnetwork feed
p9172
(lp9173
Vexisting
p9174
aVplug
p9175
atp9176
a(Vbandwidth leap
p9177
(lp9178
Vnext
p9179
aVgreat
p9180
atp9181
a(Vbuy
p9182
(lp9183
Vgreat
p9184
atp9185
a(Vson
p9186
(lp9187
Vbuy
p9188
atp9189
a(Vcustomer
p9190
(lp9191
Vhappy
p9192
atp9193
a(Vfailure
p9194
(lp9195
Vmiserable
p9196
atp9197
a(VNIGHTMARE
p9198
(lp9199
Vabsolute
p9200
atp9201
a(Venvironment
p9202
(lp9203
Vsecure
p9204
atp9205
aL104L
tp9206
sVB0001FV36E
p9207
((lp9208
(Vantenna
p9209
(lp9210
Vindoor
p9211
aVbetter
p9212
aVhave
p9213
aVhuge
p9214
aVfunctional
p9215
aVsimple
p9216
aVhas
p9217
aVnice
p9218
aVable
p9219
aVgood
p9220
aVindoor
p9221
aVbroken
p9222
aVgets
p9223
aVarrive
p9224
aVindoor
p9225
aVpointed
p9226
aVrequires
p9227
aVdoes
p9228
aVgood
p9229
aVdefective
p9230
aVis
p9231
aVwork
p9232
aVhave
p9233
aVamazing
p9234
aVlittle
p9235
aVpicked
p9236
aVsmall
p9237
aVoutdoor
p9238
aVgive
p9239
aVgood
p9240
aVhelp
p9241
aVworked
p9242
aVonly
p9243
aVdirectional
p9244
aVpointed
p9245
aVdisappointment
p9246
aVdoes
p9247
aVawesome
p9248
aVindoor
p9249
aVgave
p9250
aVworks
p9251
aVgoing
p9252
aVstandard
p9253
aVknow
p9254
aVfound
p9255
aVindoor
p9256
aVreceive
p9257
aVreceived
p9258
aVfractal
p9259
aVdirectional
p9260
aVdirectional
p9261
aVdirectional
p9262
aVclaims
p9263
aVgood
p9264
aVhad
p9265
aVbest
p9266
aVindoor
p9267
aVlooks
p9268
aVold
p9269
aVhouse
p9270
aVhas
p9271
aVpowered
p9272
aVable
p9273
aVdo
p9274
aVattractive
p9275
aVtabletop
p9276
aVincluded
p9277
aVdirectional
p9278
aVworks
p9279
aVworks
p9280
aVlarger
p9281
aVbeat
p9282
aVindoor
p9283
aVindoor
p9284
aVindoor
p9285
aVeither
p9286
aVwork
p9287
aVcloset
p9288
aVindoor
p9289
atp9290
a(Vreception
p9291
(lp9292
Vdigital
p9293
aVgreat
p9294
aVperfect
p9295
aVgood
p9296
aVgood
p9297
aVclear
p9298
aVclear
p9299
aVbetter
p9300
aVperfect
p9301
aVrequirement
p9302
aVgreat
p9303
aVdecent
p9304
aVpatchy
p9305
aVbetter
p9306
aVlocal
p9307
aVbest
p9308
aVgood
p9309
aVbest
p9310
aVmost
p9311
aVprecise
p9312
aVexcellent
p9313
aVbeautiful
p9314
aVgood
p9315
aVindoor
p9316
aVindoor
p9317
aVdifficult
p9318
aVgood
p9319
aVbetter
p9320
atp9321
a(Vcable
p9322
(lp9323
Vcoaxial
p9324
aVrely
p9325
aVcoax
p9326
aVimpedance
p9327
aVcoax
p9328
aVcoaxial
p9329
aVshort
p9330
aVlonger
p9331
aVnice
p9332
aVlonger
p9333
aVattached
p9334
aVbaby
p9335
atp9336
a(Vpicture
p9337
(lp9338
Vbad
p9339
aVbest
p9340
aVdecent
p9341
aVgo
p9342
aVgo
p9343
aVperfect
p9344
aVOK
p9345
aVexcellent
p9346
aVdeceiving
p9347
atp9348
a(Vthing
p9349
(lp9350
Vsuch
p9351
aVis
p9352
aVonly
p9353
aVhave
p9354
aVwork
p9355
aVbalanced
p9356
aVsuch
p9357
aVis
p9358
aVonly
p9359
aVpoor
p9360
atp9361
a(Vbase
p9362
(lp9363
Vstable
p9364
aVsuch
p9365
aVsmall
p9366
aVenought
p9367
aVunstable
p9368
aVsmall
p9369
aVmade
p9370
aVdesigned
p9371
aVlonger
p9372
atp9373
a(Vjob
p9374
(lp9375
Vbetter
p9376
aVdone
p9377
aVgood
p9378
aVoutstanding
p9379
aVcapable
p9380
aVfine
p9381
aVdoes
p9382
aVgreat
p9383
aVgood
p9384
atp9385
a(Vstation
p9386
(lp9387
Vparticular
p9388
aVtransmitting
p9389
aVequidistant
p9390
aVlocal
p9391
aVhad
p9392
aVodd
p9393
aVChinese
p9394
aVbroadcasting
p9395
aVavailable
p9396
atp9397
a(Vchannel
p9398
(lp9399
Vwhole
p9400
aVrouting
p9401
aVlocal
p9402
aVis
p9403
aVdifferent
p9404
aVonly
p9405
aVch
p9406
atp9407
a(Vsignal
p9408
(lp9409
Vbad
p9410
aVlouder
p9411
aVbad
p9412
aVjumped
p9413
aVlocal
p9414
aVexcellent
p9415
aVcarry
p9416
aVcame
p9417
aVstrong
p9418
atp9419
a(VTV
p9420
(lp9421
Vportable
p9422
aVportable
p9423
aVcalls
p9424
aVsatellite
p9425
aVdigital
p9426
aVbasic
p9427
aVacquired
p9428
aVportable
p9429
atp9430
a(Varea
p9431
(lp9432
Vfirm
p9433
aVleveled
p9434
aVurban
p9435
aVbest
p9436
aVmarginal
p9437
aVrural
p9438
aVremote
p9439
atp9440
a(Vpart
p9441
(lp9442
Vmost
p9443
aVbest
p9444
aVbig
p9445
aVfront
p9446
atp9447
a(Vsomething
p9448
(lp9449
Vbasic
p9450
aVnext
p9451
aVspecial
p9452
aVbetter
p9453
atp9454
a(Vunit
p9455
(lp9456
Vamplified
p9457
aVcompact
p9458
aVhas
p9459
aVfails
p9460
aVlooks
p9461
aVhas
p9462
aVunstable
p9463
atp9464
a(Vproduct
p9465
(lp9466
Vbetter
p9467
aVfantastic
p9468
aVwrong
p9469
aVdecent
p9470
atp9471
a(Vquality
p9472
(lp9473
Vpoor
p9474
aVmakes
p9475
aVhigher
p9476
aVcoax
p9477
atp9478
a(VTerk antenna
p9479
(lp9480
Vindoor
p9481
aVcute
p9482
aVparabolic
p9483
aVindoor
p9484
aVlarger
p9485
atp9486
a(Vdirection
p9487
(lp9488
Vwrong
p9489
aVdifferent
p9490
aVrough
p9491
atp9492
a(VHD
p9493
(lp9494
Vcapable
p9495
aVgood
p9496
aVbroadcastnig
p9497
atp9498
a(Vsetup
p9499
(lp9500
Vinitial
p9501
aVsimple
p9502
aVcorrect
p9503
atp9504
a(VReception
p9505
(lp9506
VBad
p9507
aVdigital
p9508
aVok
p9509
atp9510
a(Vstore
p9511
(lp9512
Vlocal
p9513
aVreceived
p9514
aVonline
p9515
aVlocal
p9516
atp9517
a(Vpurchase
p9518
(lp9519
VWISE
p9520
aVpointless
p9521
aVinformed
p9522
atp9523
a(Vspace
p9524
(lp9525
Vmore
p9526
aVprecious
p9527
aVdimensional
p9528
aVleast
p9529
atp9530
a(Vway
p9531
(lp9532
Vsupplementary
p9533
aVbe
p9534
aVbest
p9535
atp9536
a(Vnoise
p9537
(lp9538
Vmore
p9539
aVless
p9540
aVelectical
p9541
aVgetting
p9542
atp9543
a(VUHF/VHF antenna
p9544
(lp9545
Vpick
p9546
aVindoor
p9547
aVamplified
p9548
atp9549
a(VEverything
p9550
(lp9551
VUHF
p9552
aVfine
p9553
atp9554
a(Vamplifier
p9555
(lp9556
Vhelp
p9557
aVimprove
p9558
aVcome
p9559
atp9560
a(VHDTV antenna
p9561
(lp9562
Vindoor
p9563
aVAmplified
p9564
aVdigital
p9565
aVindoor
p9566
aVfailed
p9567
atp9568
a(Vsurface
p9569
(lp9570
Vlarge
p9571
aVflat
p9572
aVflat
p9573
atp9574
a(Vsolution
p9575
(lp9576
Vbest
p9577
aVwire
p9578
aVtemporary
p9579
atp9580
a(Vsignal strength
p9581
(lp9582
Vcleaner
p9583
aVhigher
p9584
atp9585
a(Vmoney
p9586
(lp9587
Vmore
p9588
aVmore
p9589
atp9590
a(Vreason
p9591
(lp9592
Vmain
p9593
aVmain
p9594
atp9595
a(Vamount
p9596
(lp9597
Vgood
p9598
aVsmall
p9599
atp9600
a(Vtime
p9601
(lp9602
Vdamdest
p9603
aVlittle
p9604
atp9605
a(Videa
p9606
(lp9607
Vgood
p9608
aVwas
p9609
atp9610
a(Vproblem
p9611
(lp9612
Vis
p9613
aVis
p9614
atp9615
a(VUHF
p9616
(lp9617
Vstyle
p9618
aVdigital
p9619
aVdigital
p9620
atp9621
a(Vversion
p9622
(lp9623
Vamplified
p9624
aVamplified
p9625
atp9626
a(Vnothing
p9627
(lp9628
Vspecial
p9629
aVspecial
p9630
atp9631
a(VHD antenna
p9632
(lp9633
Vbest
p9634
aVinferior
p9635
atp9636
a(Vrecommendation
p9637
(lp9638
Vis
p9639
aVstrong
p9640
aVis
p9641
atp9642
a(Vdipole
p9643
(lp9644
Vdual
p9645
aVsimple
p9646
atp9647
a(Vlocation
p9648
(lp9649
Vbad
p9650
aVdifferent
p9651
atp9652
a(Vprogramming
p9653
(lp9654
Vfree
p9655
aVsecondary
p9656
atp9657
a(Vcomplaint
p9658
(lp9659
Vbiggest
p9660
aVbase
p9661
aVonly
p9662
aVcord
p9663
atp9664
a(Vsomeone
p9665
(lp9666
Vwalked
p9667
aVrun
p9668
aVmake
p9669
aVelse
p9670
atp9671
a(VUHF antenna
p9672
(lp9673
Vdirectional
p9674
aVloop
p9675
aVold
p9676
aVindoor
p9677
atp9678
a(Vgain
p9679
(lp9680
Vmore
p9681
aVlittle
p9682
atp9683
a(Vrabbit ear
p9684
(lp9685
Vcheap
p9686
aVold
p9687
aVpicked
p9688
atp9689
a(Vstrength
p9690
(lp9691
Vminimum
p9692
aVrecommended
p9693
aVhalf
p9694
atp9695
a(Vdesign
p9696
(lp9697
Vpoor
p9698
aVmodern
p9699
aVenhance
p9700
atp9701
a(Vmodel
p9702
(lp9703
Vwork
p9704
aVcheaper
p9705
aVunamplified
p9706
aValtered
p9707
atp9708
a(Veye
p9709
(lp9710
Vsuch
p9711
aVsoar
p9712
atp9713
a(Vprice
p9714
(lp9715
Vlowest
p9716
aVlower
p9717
atp9718
a(Vroof
p9719
(lp9720
Vold
p9721
aVmounted
p9722
aVavailable
p9723
atp9724
a(Vdisappointment
p9725
(lp9726
Voccasional
p9727
aVhuge
p9728
atp9729
a(Voffice hours.I
p9730
(lp9731
Vdaytime
p9732
atp9733
a(Vside
p9734
(lp9735
Vnorth
p9736
atp9737
a(Vpatio
p9738
(lp9739
Vfacing
p9740
atp9741
a(Vdef nothing
p9742
(lp9743
Vhigh
p9744
atp9745
a(Vpiece
p9746
(lp9747
Vsmall
p9748
atp9749
a(Vresult
p9750
(lp9751
Vis
p9752
atp9753
a(Vinsurance
p9754
(lp9755
Vcheap
p9756
atp9757
a(Vantenna amplifier
p9758
(lp9759
Vcheap
p9760
atp9761
a(Vspot
p9762
(lp9763
Vwrong
p9764
atp9765
a(Vshot
p9766
(lp9767
Vclear
p9768
atp9769
a(Vconverter
p9770
(lp9771
Vdigital
p9772
aVdigital
p9773
atp9774
a(Vresearch
p9775
(lp9776
Vmore
p9777
atp9778
a(Vadvertising
p9779
(lp9780
Vlieing
p9781
atp9782
a(VS/N improvement
p9783
(lp9784
Vhonest
p9785
atp9786
a(Vbar
p9787
(lp9788
Vlocal
p9789
atp9790
a(Vtv tuner
p9791
(lp9792
Vsignals
p9793
atp9794
a(Vused.I
p9795
(lp9796
Vgot
p9797
atp9798
a(Valuminum
p9799
(lp9800
Vsided
p9801
atp9802
a(Vhdtv
p9803
(lp9804
Vincl
p9805
atp9806
a(Vcomment
p9807
(lp9808
Vlast
p9809
aVregard
p9810
atp9811
a(Vwife
p9812
(lp9813
Vcomplained
p9814
atp9815
a(VHDTV
p9816
(lp9817
Vfew
p9818
atp9819
a(Vobject
p9820
(lp9821
Vsubstantial
p9822
aVsized
p9823
atp9824
a(Vadjusting
p9825
(lp9826
Vlittle
p9827
atp9828
a(Vapartment
p9829
(lp9830
Vold
p9831
atp9832
a(Veffect
p9833
(lp9834
Vhuge
p9835
atp9836
a(Vtuner
p9837
(lp9838
Vhandles
p9839
atp9840
a(Vunderstanding
p9841
(lp9842
Vrudimentary
p9843
atp9844
a(Vheavy
p9845
(lp9846
Vtop
p9847
atp9848
a(Vliving room
p9849
(lp9850
Vlooks
p9851
atp9852
a(VAmazon building
p9853
(lp9854
Vused
p9855
atp9856
a(Vre-adjustment
p9857
(lp9858
Vconstant
p9859
atp9860
a(Vlayman
p9861
(lp9862
Vset
p9863
atp9864
a(Vwaste
p9865
(lp9866
VWhat
p9867
atp9868
a(Vcable/short
p9869
(lp9870
Vaprox
p9871
aVset
p9872
atp9873
a(VVHF/UHF reception
p9874
(lp9875
Vgood
p9876
atp9877
a(VVHF performance
p9878
(lp9879
Vmatch
p9880
atp9881
a(Vson
p9882
(lp9883
Vbumped
p9884
atp9885
a(VZenith log
p9886
(lp9887
Vrated
p9888
atp9889
a(Vbase antenna
p9890
(lp9891
Vpick
p9892
atp9893
a(Vkinda
p9894
(lp9895
Vis
p9896
atp9897
a(Velgato
p9898
(lp9899
Vwent
p9900
atp9901
a(Vcoverage
p9902
(lp9903
Vmediocre
p9904
atp9905
a(Vmanual
p9906
(lp9907
Vdescribes
p9908
atp9909
a(Vsupport base
p9910
(lp9911
Vsmall
p9912
atp9913
a(VSignal
p9914
(lp9915
Vincreases
p9916
atp9917
a(Vwand part
p9918
(lp9919
Vill
p9920
atp9921
a(Vcity
p9922
(lp9923
Vmajor
p9924
atp9925
a(VTV5
p9926
(lp9927
Vhad
p9928
atp9929
a(Vmistake
p9930
(lp9931
Vbig
p9932
atp9933
a(Vaddress
p9934
(lp9935
Vfollowing
p9936
atp9937
a(VChicago stations.I
p9938
(lp9939
Vbrought
p9940
atp9941
a(VDTV station
p9942
(lp9943
Vclosest
p9944
aVmiles
p9945
atp9946
a(Vday
p9947
(lp9948
Vbad
p9949
atp9950
a(Vadaptor
p9951
(lp9952
Vpowered
p9953
atp9954
a(Vbuying
p9955
(lp9956
Vworth
p9957
atp9958
a(Vsatellite
p9959
(lp9960
Vblanks
p9961
atp9962
a(Vreview
p9963
(lp9964
Vhas
p9965
atp9966
a(Vproduct claims.This
p9967
(lp9968
Vwork
p9969
atp9970
a(VIndoor antenna
p9971
(lp9972
Vdelivered
p9973
atp9974
a(Vvalidity.While
p9975
(lp9976
Vlittle
p9977
atp9978
a(Vmetal counter
p9979
(lp9980
Vhuge
p9981
atp9982
a(Vroom
p9983
(lp9984
Vmore
p9985
atp9986
a(Venough.This baby
p9987
(lp9988
Vlong
p9989
atp9990
a(Vfurther.It
p9991
(lp9992
Vcompact
p9993
atp9994
a(Vinvestment
p9995
(lp9996
Vpositive
p9997
atp9998
a(VDTV reception
p9999
(lp10000
Vmarginal
p10001
atp10002
a(VdB
p10003
(lp10004
Vfew
p10005
atp10006
a(Vdish antenna
p10007
(lp10008
Vparabolic
p10009
aVindoor
p10010
atp10011
a(Vtuning
p10012
(lp10013
Vfine
p10014
atp10015
a(Vpost
p10016
(lp10017
Vsingle
p10018
atp10019
a(Vcable.Youre
p10020
(lp10021
Vfixed
p10022
aVcoaxial
p10023
aVstuck
p10024
atp10025
a(Vft
p10026
(lp10027
Vcoax
p10028
atp10029
a(Vpreamplifier experiment
p10030
(lp10031
Vdual
p10032
aVindicated
p10033
atp10034
a(VTERK
p10035
(lp10036
Vsensitive
p10037
atp10038
a(VTerk log
p10039
(lp10040
Vbetter
p10041
aVperiodic
p10042
atp10043
a(Vcrystal HD
p10044
(lp10045
Vclear
p10046
aVlive
p10047
atp10048
a(Vtime test
p10049
(lp10050
Vprime
p10051
atp10052
a(Vvalue
p10053
(lp10054
Vgreat
p10055
atp10056
a(Vcost
p10057
(lp10058
Vmakes
p10059
atp10060
a(Vdish
p10061
(lp10062
Vsat
p10063
atp10064
a(Vantenna thinking
p10065
(lp10066
Vexisting
p10067
atp10068
a(Veverything
p10069
(lp10070
VOK
p10071
atp10072
a(Vend
p10073
(lp10074
Vopposite
p10075
atp10076
a(Vanalog
p10077
(lp10078
Vworked
p10079
atp10080
a(Vstations.This product
p10081
(lp10082
Vdeceptive
p10083
atp10084
a(Vquality antenna
p10085
(lp10086
Vhighest
p10087
aVindoor
p10088
atp10089
a(VRCA unit
p10090
(lp10091
Vinexpensive
p10092
aVbasic
p10093
atp10094
a(VTV reception
p10095
(lp10096
Vdigital
p10097
aVdecent
p10098
atp10099
a(Vstability
p10100
(lp10101
Vbetter
p10102
atp10103
a(Vsimple
p10104
(lp10105
Vsuper
p10106
atp10107
a(Vreception direction
p10108
(lp10109
Voptimum
p10110
atp10111
a(Vwatching
p10112
(lp10113
Vdaytime
p10114
atp10115
a(Vtype antenna
p10116
(lp10117
Vplain
p10118
aVold
p10119
atp10120
a(Vpole antenna
p10121
(lp10122
Vlong
p10123
atp10124
a(Vantenna gain
p10125
(lp10126
Vgives
p10127
aVadvertised
p10128
aVpassive
p10129
aVmuch
p10130
aVlower
p10131
aVhigher
p10132
atp10133
a(Vtelevision
p10134
(lp10135
Venough
p10136
atp10137
a(VTV transmission
p10138
(lp10139
Vregular
p10140
atp10141
a(Vfactor
p10142
(lp10143
Vdeciding
p10144
atp10145
a(Vreception area
p10146
(lp10147
Vmarginal
p10148
atp10149
a(Vplane
p10150
(lp10151
Vfly
p10152
aVfly
p10153
atp10154
a(VTHDTVa
p10155
(lp10156
Vbrings
p10157
atp10158
a(Vthere.It
p10159
(lp10160
Vgreat
p10161
atp10162
a(Vitem
p10163
(lp10164
Vcame
p10165
atp10166
a(Vset antenna
p10167
(lp10168
Vtop
p10169
atp10170
a(Vimprovement
p10171
(lp10172
Vmiraculous
p10173
atp10174
a(Vbrother
p10175
(lp10176
Vlives
p10177
atp10178
a(Vweather information
p10179
(lp10180
Vgood
p10181
atp10182
a(Vhoopla
p10183
(lp10184
Vabout
p10185
atp10186
a(VVHF channel
p10187
(lp10188
Vis
p10189
atp10190
a(Vclearance
p10191
(lp10192
Vgood
p10193
atp10194
a(Vaudio
p10195
(lp10196
Vintermitant
p10197
atp10198
a(Vloop antenna
p10199
(lp10200
Vamplified
p10201
aVimprove
p10202
atp10203
a(Vgain antenna
p10204
(lp10205
Vactive
p10206
aVpassive
p10207
aVbetter
p10208
atp10209
a(Vline
p10210
(lp10211
Vclear
p10212
atp10213
a(Venought
p10214
(lp10215
Vheavy
p10216
atp10217
a(VTerk HDTV
p10218
(lp10219
Vamplified
p10220
atp10221
a(Vrooftop antenna
p10222
(lp10223
Vbig
p10224
atp10225
a(Vorg website
p10226
(lp10227
Vantennaweb
p10228
atp10229
a(Vinterference
p10230
(lp10231
Vlevel
p10232
atp10233
a(Vnoise/interference problem
p10234
(lp10235
Vdigital
p10236
atp10237
a(Vscratch.After
p10238
(lp10239
Vbad
p10240
atp10241
a(Vchance
p10242
(lp10243
Vgood
p10244
atp10245
a(Vsilver sensor
p10246
(lp10247
Vpassive
p10248
atp10249
a(Vand2.Didnt
p10250
(lp10251
Vbetter
p10252
aVcome
p10253
atp10254
a(VTERK antenna
p10255
(lp10256
Vactive
p10257
aVactive
p10258
aVtypical
p10259
aVindoor
p10260
aVworks
p10261
aVindoor
p10262
aVpointed
p10263
atp10264
a(Vstations.Had
p10265
(lp10266
Vdifferent
p10267
atp10268
a(Vread
p10269
(lp10270
Vcursory
p10271
atp10272
a(Vstandard
p10273
(lp10274
Vclassic
p10275
atp10276
a(VRF CH
p10277
(lp10278
Vstrength
p10279
atp10280
a(Vimpedance
p10281
(lp10282
Vohms
p10283
atp10284
a(VHD reception
p10285
(lp10286
Vinferior
p10287
atp10288
a(Vtower
p10289
(lp10290
Vtransmitting
p10291
atp10292
a(VAntenna
p10293
(lp10294
VNice
p10295
aVget
p10296
atp10297
a(Vneed
p10298
(lp10299
Vis
p10300
atp10301
a(Vdifference
p10302
(lp10303
Vbig
p10304
atp10305
a(Vmoment
p10306
(lp10307
Vfound
p10308
atp10309
a(Vspot ontop
p10310
(lp10311
Vgood
p10312
atp10313
a(Vthumb
p10314
(lp10315
Vsore
p10316
atp10317
a(VTERK HDTVi
p10318
(lp10319
Vpicked
p10320
atp10321
a(ValuminumCONS
p10322
(lp10323
Vbrushed
p10324
atp10325
a(Vsatellite channels.This
p10326
(lp10327
Vdigital
p10328
atp10329
a(Vchoice
p10330
(lp10331
Vgreat
p10332
atp10333
a(Vauto
p10334
(lp10335
Vscan
p10336
atp10337
a(Vreturn policy
p10338
(lp10339
Vgood
p10340
atp10341
a(Vrequirement
p10342
(lp10343
Vmain
p10344
atp10345
a(Vadjustment
p10346
(lp10347
Vconstant
p10348
atp10349
a(Vincome
p10350
(lp10351
Vfixed
p10352
atp10353
a(Vantenna shop
p10354
(lp10355
Vabove
p10356
aVmentioned
p10357
atp10358
a(Viron
p10359
(lp10360
Vornamental
p10361
atp10362
a(Vcoat hanger
p10363
(lp10364
Vwork
p10365
atp10366
a(VVHF reception
p10367
(lp10368
Vbest
p10369
atp10370
a(Vlot
p10371
(lp10372
Vhappen
p10373
atp10374
a(VTV preamplifier
p10375
(lp10376
Vbetter
p10377
aVgoing
p10378
aVseparate
p10379
atp10380
a(Vat.I
p10381
(lp10382
Vlocated
p10383
atp10384
a(Vreception.Set product
p10385
(lp10386
Vbest
p10387
atp10388
a(Vpassive antenna
p10389
(lp10390
Vdirectional
p10391
atp10392
a(Vcustomer
p10393
(lp10394
Vhighest
p10395
atp10396
a(Vpoint
p10397
(lp10398
Vstarting
p10399
atp10400
a(Vfact
p10401
(lp10402
Vhad
p10403
atp10404
a(Vfoot cable
p10405
(lp10406
Vshort
p10407
aVcoaxial
p10408
atp10409
a(Vattic antenna
p10410
(lp10411
Vgreat
p10412
aVlittle
p10413
atp10414
a(Vgirl
p10415
(lp10416
Vhates
p10417
atp10418
a(Vcut
p10419
(lp10420
Vwouldnt
p10421
atp10422
a(VPurchaser
p10423
(lp10424
Vhappy
p10425
atp10426
a(VSUCH THING
p10427
(lp10428
Vis
p10429
atp10430
a(Vdevice
p10431
(lp10432
Vsingle
p10433
atp10434
a(Vsignal.but hey
p10435
(lp10436
Vfussy
p10437
atp10438
a(Vfootball season
p10439
(lp10440
Vhopeful
p10441
aVcome
p10442
atp10443
a(Vdrawbacks HDTV
p10444
(lp10445
Vslight
p10446
atp10447
a(Vbalancing issue
p10448
(lp10449
Vserious
p10450
atp10451
a(Vwidth
p10452
(lp10453
Vtotal
p10454
atp10455
a(Vinformation
p10456
(lp10457
Vsay
p10458
atp10459
a(Vcoupler
p10460
(lp10461
Vfemale
p10462
aVcoaxial
p10463
atp10464
a(VHub antenna
p10465
(lp10466
Vindoor
p10467
atp10468
a(VPDHTV1
p10469
(lp10470
VUHV
p10471
atp10472
a(Vbrick
p10473
(lp10474
Vfavorite
p10475
atp10476
a(Vfootprint
p10477
(lp10478
VLarge
p10479
atp10480
a(Vswap
p10481
(lp10482
Vdirect
p10483
atp10484
a(Vcouple
p10485
(lp10486
Vare
p10487
atp10488
a(Vantenna package
p10489
(lp10490
Vindoor
p10491
atp10492
a(VBowtie antenna
p10493
(lp10494
Vold
p10495
atp10496
a(VPBS channel
p10497
(lp10498
Vlocal
p10499
atp10500
a(Vperformance
p10501
(lp10502
Vpoor
p10503
atp10504
a(Vantenna sort
p10505
(lp10506
Vomnidirectional
p10507
atp10508
a(VLCD TV
p10509
(lp10510
VPortable
p10511
aVPortable
p10512
atp10513
a(VHDTV package
p10514
(lp10515
Vdigital
p10516
atp10517
a(VHigh-Rise apartment
p10518
(lp10519
Vstory
p10520
atp10521
a(VDVD PlayerI
p10522
(lp10523
Vwanted
p10524
atp10525
a(Vpossiblilty
p10526
(lp10527
Vis
p10528
atp10529
a(Vvideo
p10530
(lp10531
Vpixellated
p10532
atp10533
a(Vdef
p10534
(lp10535
Vhigh
p10536
atp10537
a(Vamplification section
p10538
(lp10539
Vhave
p10540
atp10541
a(Vview
p10542
(lp10543
Vclear
p10544
atp10545
a(Vboy
p10546
(lp10547
Vdid
p10548
atp10549
a(VRCA
p10550
(lp10551
Vmissed
p10552
atp10553
a(Vpicture quality
p10554
(lp10555
Vfull
p10556
atp10557
a(Vbedroom TV
p10558
(lp10559
Vold
p10560
atp10561
a(Vhorrendous.The reception
p10562
(lp10563
Vdigital
p10564
atp10565
a(Vweather
p10566
(lp10567
Vbad
p10568
atp10569
a(Vend antenna
p10570
(lp10571
Vhigher
p10572
atp10573
a(VAnyone
p10574
(lp10575
Vlives
p10576
atp10577
a(Vpair
p10578
(lp10579
Vintegrated
p10580
aVfound
p10581
atp10582
a(VTerk55
p10583
(lp10584
Vstarting
p10585
atp10586
a(Vhiding spot
p10587
(lp10588
Vgood
p10589
atp10590
a(Vlevel
p10591
(lp10592
Vlower
p10593
atp10594
a(VABC channel
p10595
(lp10596
Vlocal
p10597
atp10598
a(Vconverter box
p10599
(lp10600
Vdigital
p10601
atp10602
a(VHDTVi
p10603
(lp10604
Vdoes
p10605
atp10606
a(Vnote
p10607
(lp10608
Vmore
p10609
atp10610
a(Vwire
p10611
(lp10612
Vstraight
p10613
atp10614
a(Vantenna cable
p10615
(lp10616
Vcoaxial
p10617
atp10618
a(Vhead unit
p10619
(lp10620
Videntical
p10621
atp10622
a(Vbeam
p10623
(lp10624
Vmuch
p10625
aVnarrower
p10626
atp10627
a(Vsomebody
p10628
(lp10629
Vput
p10630
atp10631
a(Vinput impedance
p10632
(lp10633
Vcommon
p10634
atp10635
a(Vgrove
p10636
(lp10637
Vsmall
p10638
atp10639
a(VALL
p10640
(lp10641
Vsudden
p10642
atp10643
a(Vneeds base
p10644
(lp10645
Vwider
p10646
atp10647
a(Vassembly
p10648
(lp10649
Vincludes
p10650
atp10651
a(Vadvantage
p10652
(lp10653
Vis
p10654
atp10655
a(Vdistance
p10656
(lp10657
Vfair
p10658
atp10659
a(VHD broadcast
p10660
(lp10661
Vlocal
p10662
atp10663
a(VHD signal
p10664
(lp10665
Vgood
p10666
aVgood
p10667
aVstuttered
p10668
atp10669
a(Vrooftop
p10670
(lp10671
Voutdoor
p10672
aVpreferrably
p10673
atp10674
a(VHDMI quality
p10675
(lp10676
Vtrue
p10677
atp10678
a(VNBC signal
p10679
(lp10680
Vweak
p10681
aVstrong
p10682
atp10683
a(Vohm cable
p10684
(lp10685
Vneeds
p10686
atp10687
a(Vstrength meter
p10688
(lp10689
Vpeaked
p10690
atp10691
a(Vhouse.The thing
p10692
(lp10693
Vnice
p10694
atp10695
a(Vmicrowave
p10696
(lp10697
Volder
p10698
atp10699
a(Vcable portion
p10700
(lp10701
Vstow
p10702
atp10703
a(Vone
p10704
(lp10705
Vcheap
p10706
aVportable
p10707
atp10708
a(Vrubber-it
p10709
(lp10710
Vflimsy
p10711
atp10712
a(Vbox
p10713
(lp10714
Vsays
p10715
atp10716
a(Vroof top
p10717
(lp10718
Vdoes
p10719
atp10720
a(VHD ANTENNA
p10721
(lp10722
VAS
p10723
atp10724
a(Vsalesman
p10725
(lp10726
Vimplies
p10727
atp10728
a(Vsetup issue
p10729
(lp10730
Vimportant
p10731
aVis
p10732
atp10733
a(Vantenna.I
p10734
(lp10735
Vaverage
p10736
aVcheapo
p10737
aVprofessional
p10738
atp10739
a(VCH channel
p10740
(lp10741
VAsian
p10742
atp10743
a(Vtype
p10744
(lp10745
Vown
p10746
atp10747
a(VPHDTV1 sensor
p10748
(lp10749
Vsilver
p10750
atp10751
a(Vtuner section
p10752
(lp10753
Vdigital
p10754
atp10755
a(Vbetter.I
p10756
(lp10757
Vreturned
p10758
atp10759
a(Vglass door
p10760
(lp10761
Vsliding
p10762
atp10763
a(Vbit
p10764
(lp10765
Vlittle
p10766
atp10767
a(Vit.I
p10768
(lp10769
Vworth
p10770
atp10771
a(Vscanning
p10772
(lp10773
Vinitial
p10774
atp10775
a(VHDTV-ready panel
p10776
(lp10777
Vflat
p10778
atp10779
a(Vgame
p10780
(lp10781
Vbig
p10782
atp10783
a(V25-50km
p10784
(lp10785
Vgood
p10786
atp10787
a(Vsignal amplifier
p10788
(lp10789
Vneed
p10790
atp10791
a(VMagnavox SCP030
p10792
(lp10793
Vworked
p10794
atp10795
a(Vcable connector
p10796
(lp10797
Vnormal
p10798
aVcoaxial
p10799
atp10800
a(Vconnector
p10801
(lp10802
Vcoax
p10803
aVterrible
p10804
atp10805
a(VTerk TV5
p10806
(lp10807
Vamplified
p10808
atp10809
a(VTerk HD-TVS
p10810
(lp10811
Voriginal
p10812
aVbroke
p10813
atp10814
a(Vluck
p10815
(lp10816
VGood
p10817
atp10818
a(Vover-the-air feed
p10819
(lp10820
Vdigital
p10821
atp10822
a(Vfringe area
p10823
(lp10824
Vtrue
p10825
atp10826
aL94L
tp10827
sVB000629GES
p10828
((lp10829
(Vquality
p10830
(lp10831
Vhigh
p10832
aVpoor
p10833
aVlittle
p10834
aVbetter
p10835
aVAudio
p10836
aVOK
p10837
aVgood
p10838
aVdecent
p10839
aVGood
p10840
aVgoing
p10841
aVis
p10842
aVapproach
p10843
aVgood
p10844
aVoverall
p10845
aVaudio
p10846
aVhigher
p10847
aVSound
p10848
aVimportant
p10849
aVclear
p10850
aVaudio
p10851
aVaverage
p10852
aVgood
p10853
aVSound
p10854
aVgood
p10855
aVamazing
p10856
aVbetter
p10857
aVgood
p10858
aVSound
p10859
aVgood
p10860
aVnice
p10861
aVgood
p10862
aVGood
p10863
aVmiserable
p10864
aVgood
p10865
aVGood
p10866
aVexcellent
p10867
atp10868
a(Vnoise
p10869
(lp10870
Vmore
p10871
aVworks
p10872
aVbetter
p10873
aVwhite
p10874
aVwhite
p10875
aVunwanted
p10876
aVunwanted
p10877
aVextraneous
p10878
aVblocking
p10879
aVlet
p10880
aVcanceling
p10881
aVwhite
p10882
aVenvironmental
p10883
aVmuch
p10884
aVannoying
p10885
aVwhite
p10886
aVfeature
p10887
aVwhite
p10888
aVregular
p10889
aVwhite
p10890
aVmany
p10891
aVcanceling
p10892
aVhissing
p10893
aVwhite
p10894
aVunbelievable
p10895
aVcame
p10896
aVworks
p10897
aVwhite
p10898
aVperfect
p10899
aVcancelling
p10900
aVdefinite
p10901
aVwhite
p10902
atp10903
a(Vsound
p10904
(lp10905
Vquiet
p10906
aVhiss
p10907
aVwent
p10908
aVunaffected
p10909
aVsatisfactory
p10910
aVfine
p10911
aVaudio
p10912
aVgood
p10913
aVricher
p10914
aVexceptional
p10915
aVhissing
p10916
aVbothered
p10917
aVOverall
p10918
aVacceptable
p10919
aVslight
p10920
aVhissing
p10921
aVis
p10922
aVcomparable
p10923
aVdistorted
p10924
aVgreat
p10925
aVincredible
p10926
aVwhining
p10927
aVgood
p10928
aVrecommend
p10929
aVgreater
p10930
aVown
p10931
aVhissing
p10932
aVwhooshing
p10933
aVloud
p10934
aVgood
p10935
atp10936
a(Vproduct
p10937
(lp10938
Vgood
p10939
aVstylish
p10940
aVuncomfortable
p10941
aVgood
p10942
aVenough
p10943
aVGreat
p10944
aVgreat
p10945
aVgood
p10946
aVsolid
p10947
aVGood
p10948
aVmechanical
p10949
aVfelt
p10950
aVGood
p10951
aVrate
p10952
aVbest
p10953
aVdoes
p10954
aVbreakable
p10955
atp10956
a(Vmusic
p10957
(lp10958
Vplaying
p10959
aVstarts
p10960
aVquieter
p10961
aVpleasurable
p10962
aVplayed
p10963
aVplayed
p10964
aVloud
p10965
aVstarts
p10966
aVstarts
p10967
aVplaying
p10968
aVis
p10969
aVbecomes
p10970
aVloud
p10971
atp10972
a(Vjob
p10973
(lp10974
Vgood
p10975
aVexcellent
p10976
aVexcellent
p10977
aVgood
p10978
aVgood
p10979
aVdone
p10980
aVgood
p10981
aVgood
p10982
aVgood
p10983
aVgreat
p10984
aVgreat
p10985
atp10986
a(Vnoise canceling
p10987
(lp10988
Vgood
p10989
aVgood
p10990
aVworks
p10991
aVlooked
p10992
aVsuperb
p10993
aVfeatures
p10994
aVworks
p10995
aVdo
p10996
aVdecent
p10997
atp10998
a(Vflight
p10999
(lp11000
Vhours
p11001
aVlong
p11002
aVreturning
p11003
aVnoisy
p11004
aVlong
p11005
aVcommercial
p11006
aVpeaceaful
p11007
aVlong
p11008
atp11009
a(Vbass
p11010
(lp11011
Vdeep
p11012
aVstrong
p11013
aVdeep
p11014
aVmore
p11015
aVoverpowering
p11016
aVmore
p11017
aVgood
p11018
aVmuch
p11019
aVamazing
p11020
atp11021
a(Vpair
p11022
(lp11023
Vcheap
p11024
aVgreat
p11025
aVtight
p11026
aVfitting
p11027
aVdo
p11028
aVgood
p11029
aVlooking
p11030
aVbest
p11031
aVbetter
p11032
aVaverage
p11033
aVgood
p11034
atp11035
a(Vprice
p11036
(lp11037
Vreasonable
p11038
aVgreat
p11039
aVlow
p11040
aVreasonable
p11041
aVgood
p11042
aVrefurb
p11043
aVgood
p11044
atp11045
a(Vfeature
p11046
(lp11047
Vcanceling
p11048
aVspectacular
p11049
aVcancelling
p11050
aVenabled
p11051
aVcancel
p11052
aVworks
p11053
aVcanceling
p11054
atp11055
a(Vset
p11056
(lp11057
VBose
p11058
aVfeels
p11059
aVthird
p11060
aVDOA
p11061
aVought
p11062
aVbad
p11063
aVgreat
p11064
aVgood
p11065
aVsolid
p11066
aVcomfortable
p11067
atp11068
a(Vbuy
p11069
(lp11070
Vgreat
p11071
aVgood
p11072
aVgreat
p11073
aVgood
p11074
aVgood
p11075
aVgood
p11076
atp11077
a(Vtime
p11078
(lp11079
Vonly
p11080
aVfound
p11081
aVlong
p11082
aVlong
p11083
aVlong
p11084
atp11085
a(Vnoise cancelling
p11086
(lp11087
Vturned
p11088
aVMINIMAL
p11089
aVgood
p11090
aVgood
p11091
aVmore
p11092
atp11093
a(Vuse
p11094
(lp11095
Vdaily
p11096
aVprolonged
p11097
aVnormal
p11098
aVspecific
p11099
aVlong
p11100
aVdaily
p11101
atp11102
a(Vpouch
p11103
(lp11104
Vcarrying
p11105
aVnice
p11106
aVthick
p11107
aVwhole
p11108
aVgiant
p11109
aVnice
p11110
aVincluded
p11111
aVdo
p11112
atp11113
a(Vsomething
p11114
(lp11115
Vbetter
p11116
aVnegative
p11117
aVexpensive
p11118
aVwrong
p11119
aVacceptable
p11120
atp11121
a(Vthing
p11122
(lp11123
Vlength
p11124
aVnice
p11125
aVis
p11126
aVis
p11127
aVonly
p11128
aVfact
p11129
atp11130
a(Vside
p11131
(lp11132
Vfragile
p11133
aVrough
p11134
aVwork
p11135
aVplus
p11136
atp11137
a(Vwife
p11138
(lp11139
Vcame
p11140
aVhas
p11141
aVtends
p11142
aVhas
p11143
atp11144
a(Vbattery
p11145
(lp11146
Vseems
p11147
aVgoes
p11148
aVside
p11149
aVstays
p11150
atp11151
a(Vbit
p11152
(lp11153
Vlittle
p11154
aVlittle
p11155
aVcomes
p11156
aVlittle
p11157
atp11158
a(Vdifference
p11159
(lp11160
Vdramatic
p11161
aVhuge
p11162
aVminimal
p11163
aVturned
p11164
aVonly
p11165
aVis
p11166
atp11167
a(Vlevel
p11168
(lp11169
Vlow
p11170
aVlow
p11171
aVseems
p11172
aVmoderate
p11173
atp11174
a(Vnoise cancellation
p11175
(lp11176
Vclose
p11177
aVactive
p11178
aVactive
p11179
aVdoes
p11180
aVokay
p11181
atp11182
a(Vproblem
p11183
(lp11184
Vonly
p11185
aVis
p11186
aVongoing
p11187
aVband
p11188
aVis
p11189
atp11190
a(VBose
p11191
(lp11192
Voption
p11193
aVgo
p11194
aVstolen
p11195
aVsorry
p11196
aVmake
p11197
atp11198
a(Vhiss
p11199
(lp11200
Vadded
p11201
aVsoothing
p11202
aVfaint
p11203
aVslight
p11204
aVis
p11205
aVperceptible
p11206
aVwas
p11207
atp11208
a(Vheadset
p11209
(lp11210
Vgood
p11211
aVdefective
p11212
aVgreat
p11213
aVworks
p11214
aVdecent
p11215
aVseems
p11216
atp11217
a(Vdesign
p11218
(lp11219
Vopen
p11220
aVfolding
p11221
aVclean
p11222
aVsimple
p11223
aVsolid
p11224
atp11225
a(Vreason
p11226
(lp11227
Vodd
p11228
aVis
p11229
aVbiggest
p11230
atp11231
a(Vrange
p11232
(lp11233
Vcertain
p11234
aVentire
p11235
aVdb
p11236
aVfull
p11237
aVsounds
p11238
aVcertain
p11239
aVcertain
p11240
aVhuge
p11241
atp11242
a(Vday
p11243
(lp11244
Vroom
p11245
aVwear
p11246
aVcoming
p11247
atp11248
a(Vnothing
p11249
(lp11250
Vfancy
p11251
aVremarkable
p11252
aVwrong
p11253
atp11254
a(Vhead
p11255
(lp11256
Vmobile
p11257
aVlarge
p11258
aVsmall
p11259
aVsuper
p11260
aVsmall
p11261
atp11262
a(Vdeal
p11263
(lp11264
Vgood
p11265
aVfair
p11266
aVgood
p11267
aVgood
p11268
atp11269
a(Vpiece
p11270
(lp11271
Vlittle
p11272
aVwas
p11273
aVseparate
p11274
aVinteresting
p11275
atp11276
a(Vnoise reduction
p11277
(lp11278
Vworks
p11279
aVgoing
p11280
aVinternal
p11281
aVcancels
p11282
atp11283
a(Vear
p11284
(lp11285
Ventire
p11286
aVhurts
p11287
aVtype
p11288
atp11289
a(Vplastic
p11290
(lp11291
Vhard
p11292
aVdurable
p11293
aVbetter
p11294
aVsynthetic
p11295
aVtasteful
p11296
atp11297
a(Venvironment
p11298
(lp11299
Vnormal
p11300
aVworking
p11301
aVcontrolled
p11302
aVinside
p11303
atp11304
a(Vheadphone
p11305
(lp11306
Vgood
p11307
aVrefurbished
p11308
aVcheaper
p11309
aVcheaper
p11310
aVlight
p11311
atp11312
a(Vvolume
p11313
(lp11314
Vincreases
p11315
aVlower
p11316
aVfull
p11317
aVhigh
p11318
aVharmful
p11319
atp11320
a(Vdevice
p11321
(lp11322
Vaudio
p11323
aVaudio
p11324
aVcancelling
p11325
aVgo
p11326
atp11327
a(Vbackground noise
p11328
(lp11329
Vconstant
p11330
aVis
p11331
aVwhite
p11332
aVmuch
p11333
aVconstant
p11334
atp11335
a(Vcomfort
p11336
(lp11337
Vis
p11338
aVsuffers
p11339
aVOverall
p11340
aVcompartment
p11341
aVloud
p11342
aVok
p11343
atp11344
a(Vswitch
p11345
(lp11346
Vcanceling
p11347
aVis
p11348
aVaccessible
p11349
atp11350
a(Vmusic listener
p11351
(lp11352
Vavid
p11353
aVpersnickety
p11354
atp11355
a(Vyear
p11356
(lp11357
Vabout
p11358
aVlast
p11359
atp11360
a(Vcancellation
p11361
(lp11362
Vworks
p11363
aVworks
p11364
atp11365
a(Vamount
p11366
(lp11367
Vsmall
p11368
aVfair
p11369
atp11370
a(Vfrequency response
p11371
(lp11372
Vgood
p11373
aVsingle
p11374
aVoverall
p11375
atp11376
a(Vchoice
p11377
(lp11378
Vexcellent
p11379
aVfine
p11380
aVgood
p11381
atp11382
a(Vend
p11383
(lp11384
Vhigh
p11385
aVhigh
p11386
aVbecame
p11387
aVlow
p11388
aVlow
p11389
atp11390
a(Vlistener
p11391
(lp11392
Vhears
p11393
aVcasual
p11394
atp11395
a(Vpause
p11396
(lp11397
Vis
p11398
aVbrief
p11399
aVis
p11400
atp11401
a(Vreplacement
p11402
(lp11403
Vgood
p11404
aVamazing
p11405
atp11406
a(Vsnob
p11407
(lp11408
Vaudio
p11409
aVaudio
p11410
atp11411
a(Vpressure
p11412
(lp11413
Vless
p11414
aVbecomes
p11415
atp11416
a(Vreduction
p11417
(lp11418
Vtotal
p11419
aVdecibel
p11420
aVgreat
p11421
aVslight
p11422
aVis
p11423
atp11424
a(Vway
p11425
(lp11426
Vworks
p11427
aVconvenient
p11428
atp11429
a(VAAA battery
p11430
(lp11431
Vrechargeable
p11432
aVlasted
p11433
aVsingle
p11434
atp11435
a(Vreviewer
p11436
(lp11437
Vhave
p11438
aVcomplained
p11439
atp11440
a(Vcircuitry
p11441
(lp11442
Vworking
p11443
aVis
p11444
atp11445
a(Vcancellation feature
p11446
(lp11447
Vcool
p11448
aVhas
p11449
atp11450
a(Vnotch
p11451
(lp11452
Vtop
p11453
aVtop
p11454
atp11455
a(Vmodel
p11456
(lp11457
Vbetter
p11458
aVexact
p11459
atp11460
a(Vfoam
p11461
(lp11462
Vcircular
p11463
aVsoft
p11464
aVrests
p11465
aVcheap
p11466
atp11467
a(Vmaterial
p11468
(lp11469
Vscratchy
p11470
aVthin
p11471
atp11472
a(Vcomputer
p11473
(lp11474
Vlast
p11475
aVvaio
p11476
aVmakes
p11477
atp11478
a(Valternative
p11479
(lp11480
Vcheaper
p11481
aVgood
p11482
atp11483
a(Vpart
p11484
(lp11485
Vouter
p11486
aVBad
p11487
aVputting
p11488
atp11489
a(Vbattery compartment
p11490
(lp11491
Vpressed
p11492
aVlocated
p11493
atp11494
a(Vquest
p11495
(lp11496
Vcontinuing
p11497
aVended
p11498
atp11499
a(Vpackage
p11500
(lp11501
Vneat
p11502
aVfragile
p11503
atp11504
a(Vsolution
p11505
(lp11506
Vgood
p11507
aVreasonable
p11508
atp11509
a(Vdoesnt
p11510
(lp11511
Vnoticable
p11512
aVreduce
p11513
atp11514
a(Vvalue
p11515
(lp11516
Vgood
p11517
aVclear
p11518
aVwear
p11519
atp11520
a(Vcost
p11521
(lp11522
Vless
p11523
aVless
p11524
atp11525
a(Vcriticism
p11526
(lp11527
Vis
p11528
aVmajor
p11529
aVis
p11530
atp11531
a(Vmoney
p11532
(lp11533
Vmuch
p11534
aVmore
p11535
atp11536
a(Vtrip
p11537
(lp11538
Vrecent
p11539
aVinternational
p11540
aVhour
p11541
atp11542
a(Vlot
p11543
(lp11544
Vcheaper
p11545
aVprovide
p11546
atp11547
a(Vfact
p11548
(lp11549
Vbonus
p11550
aVrecommend
p11551
atp11552
a(Vweek
p11553
(lp11554
Vlast
p11555
aVnext
p11556
atp11557
a(Vear piece
p11558
(lp11559
Vhard
p11560
aVfailed
p11561
atp11562
a(VSound
p11563
(lp11564
Vcoming
p11565
aVOK
p11566
atp11567
a(Vissue
p11568
(lp11569
Vonly
p11570
aVis
p11571
aVonly
p11572
atp11573
a(VSony MDR-NC6
p11574
(lp11575
Vhas
p11576
aVchoice
p11577
atp11578
a(Vdecrease
p11579
(lp11580
Vdefinite
p11581
aVwas
p11582
atp11583
a(Vvolume boost
p11584
(lp11585
Vwonderful
p11586
atp11587
a(Vcar
p11588
(lp11589
Vgreat
p11590
atp11591
a(Vcrystal
p11592
(lp11593
Vclear
p11594
atp11595
a(Vspot
p11596
(lp11597
Vodd
p11598
atp11599
a(Vuieter
p11600
(lp11601
Vmuch
p11602
aVcomfortable
p11603
atp11604
a(Vearphone thing
p11605
(lp11606
Vwhole
p11607
atp11608
a(Vplug
p11609
(lp11610
Vdesigned
p11611
aVgoes
p11612
atp11613
a(Vadvertising
p11614
(lp11615
Vfalse
p11616
atp11617
a(Vuser
p11618
(lp11619
Vmore
p11620
aVfriendly
p11621
atp11622
a(Vsomeone
p11623
(lp11624
Vwanting
p11625
atp11626
a(Velement
p11627
(lp11628
Vhard
p11629
atp11630
a(Vbeast.All-in-all
p11631
(lp11632
Vsurly
p11633
atp11634
a(Vjet flight
p11635
(lp11636
Vlong
p11637
atp11638
a(Vgeneration Bose
p11639
(lp11640
Vnewest
p11641
atp11642
a(Vuse.I
p11643
(lp11644
Vprolonged
p11645
atp11646
a(Vwaste
p11647
(lp11648
VWhat
p11649
atp11650
a(Vmine
p11651
(lp11652
Vbought
p11653
atp11654
a(Vyou.A value
p11655
(lp11656
Vgreat
p11657
atp11658
a(Vcup style
p11659
(lp11660
Vcushioned
p11661
atp11662
a(VCancelling headset
p11663
(lp11664
Vdoes
p11665
aVdetects
p11666
atp11667
a(Vperformance
p11668
(lp11669
Vsuperior
p11670
aVsolid
p11671
atp11672
a(Vband
p11673
(lp11674
Vstiff
p11675
atp11676
a(Vblister pack
p11677
(lp11678
Vdreaded
p11679
atp11680
a(Vmatter compartment
p11681
(lp11682
Vtouch
p11683
aVlocated
p11684
atp11685
a(Vresponse
p11686
(lp11687
Vbetter
p11688
atp11689
a(Vsender
p11690
(lp11691
Vpaid
p11692
atp11693
a(Vpadding.The noise
p11694
(lp11695
Vcheap
p11696
atp11697
a(Vlook
p11698
(lp11699
Vhard
p11700
atp11701
a(Vassumption
p11702
(lp11703
Vdumb
p11704
atp11705
a(Vevidence
p11706
(lp11707
Vmore
p11708
atp11709
a(VLOT
p11710
(lp11711
Vis
p11712
atp11713
a(Vmidrange
p11714
(lp11715
Vgood
p11716
atp11717
a(Vcancellation function
p11718
(lp11719
Vworks
p11720
atp11721
a(Vmusic sound
p11722
(lp11723
Vgreat
p11724
atp11725
a(VAAA
p11726
(lp11727
Vsingle
p11728
atp11729
a(Vtechnology
p11730
(lp11731
Vslick
p11732
atp11733
a(Vmini-plug
p11734
(lp11735
Vtorn
p11736
atp11737
a(Vbonus
p11738
(lp11739
Vadded
p11740
aVis
p11741
atp11742
a(Vdin
p11743
(lp11744
Vgrowling
p11745
aVhissing
p11746
atp11747
a(Vreview
p11748
(lp11749
Vmentioned
p11750
atp11751
a(Vroom
p11752
(lp11753
Vsoundproofed
p11754
atp11755
a(Vreinforcement
p11756
(lp11757
Vis
p11758
atp11759
a(Vinvestment
p11760
(lp11761
Vwhole
p11762
atp11763
a(Vpreference
p11764
(lp11765
Vindividual
p11766
atp11767
a(Vshift
p11768
(lp11769
Vdefinite
p11770
atp11771
a(Vbad.I
p11772
(lp11773
Vthought
p11774
atp11775
a(Vpassive headphone.I
p11776
(lp11777
Vcheap
p11778
aVJapanese
p11779
atp11780
a(Vplane.The price
p11781
(lp11782
Vmade
p11783
atp11784
a(Vair flow
p11785
(lp11786
Vannoying
p11787
atp11788
a(Vtest
p11789
(lp11790
Vultimate
p11791
atp11792
a(Vsize head
p11793
(lp11794
Vaverage
p11795
atp11796
a(Vdrummer
p11797
(lp11798
Vsitting
p11799
atp11800
a(Vorder
p11801
(lp11802
Varrive
p11803
atp11804
a(Vequipment
p11805
(lp11806
Velectronic
p11807
aVworking
p11808
atp11809
a(Vholder
p11810
(lp11811
Vbroke
p11812
atp11813
a(Vreviews.These sound
p11814
(lp11815
Vgreat
p11816
atp11817
a(Vgiraffe
p11818
(lp11819
Vget
p11820
atp11821
a(Vlifespan
p11822
(lp11823
Vshort
p11824
atp11825
a(Vportion
p11826
(lp11827
Vgood
p11828
atp11829
a(Vlie
p11830
(lp11831
Voutright
p11832
atp11833
a(Vsubway
p11834
(lp11835
Vrumble
p11836
atp11837
a(Vaudio channel
p11838
(lp11839
Vgone
p11840
atp11841
a(Vflight attendant
p11842
(lp11843
Vsaying
p11844
atp11845
a(Vduration
p11846
(lp11847
Vlong
p11848
atp11849
a(Vear pad
p11850
(lp11851
Venclosing
p11852
atp11853
a(Vattachment
p11854
(lp11855
Vseparate
p11856
atp11857
a(Vnoise effect
p11858
(lp11859
Vfiltering
p11860
atp11861
a(Vheadband.I
p11862
(lp11863
Vbuy
p11864
atp11865
a(Vonthe package
p11866
(lp11867
Vshows
p11868
atp11869
a(Vbriefcase.I
p11870
(lp11871
Vdecided
p11872
atp11873
a(Vhotel room
p11874
(lp11875
Velevators
p11876
atp11877
a(Vparts too.Not
p11878
(lp11879
Vfoldable
p11880
atp11881
a(Vfrequency hiss
p11882
(lp11883
Vhigher
p11884
atp11885
a(Vfriend
p11886
(lp11887
Vbest
p11888
aVagreed
p11889
atp11890
a(Vsource
p11891
(lp11892
Vaudio
p11893
atp11894
a(Vmarriage
p11895
(lp11896
Vhappy
p11897
atp11898
a(VVision M
p11899
(lp11900
VCreative
p11901
atp11902
a(VNoise feature
p11903
(lp11904
Vcancelling
p11905
aVbest
p11906
atp11907
a(Vprice point
p11908
(lp11909
Vcommensurate
p11910
atp11911
a(Vnoise leakage
p11912
(lp11913
Vadditional
p11914
atp11915
a(VER-6i
p11916
(lp11917
VEtymotic
p11918
atp11919
a(Vfrequency thrumming
p11920
(lp11921
Vlow
p11922
atp11923
a(Vcustomer service
p11924
(lp11925
Vfantastic
p11926
atp11927
a(Vventillation system
p11928
(lp11929
Vmakes
p11930
atp11931
a(Vhardcore
p11932
(lp11933
Vtry
p11934
atp11935
a(Vleft channel
p11936
(lp11937
Vquit
p11938
atp11939
a(Vnoise machine
p11940
(lp11941
Vwhite
p11942
atp11943
a(Vdrone
p11944
(lp11945
Vprompted
p11946
atp11947
a(VNoise cancellation
p11948
(lp11949
Vworks
p11950
atp11951
a(Vbummer
p11952
(lp11953
Vreal
p11954
atp11955
a(Vanything
p11956
(lp11957
Vmuch
p11958
atp11959
a(Vskull
p11960
(lp11961
Vsore
p11962
atp11963
a(VCa
p11964
(lp11965
Vwait
p11966
atp11967
a(Vear coverage
p11968
(lp11969
Vcauses
p11970
atp11971
a(VC/S guy
p11972
(lp11973
Vcare
p11974
atp11975
a(Vmotor
p11976
(lp11977
Vsounds
p11978
atp11979
a(VDVD player
p11980
(lp11981
Vportable
p11982
atp11983
a(Vbill
p11984
(lp11985
Vfilled
p11986
atp11987
a(Vlocation
p11988
(lp11989
Vquiet
p11990
atp11991
a(Vclip
p11992
(lp11993
Vsafty
p11994
aVwork
p11995
atp11996
a(Vbass response
p11997
(lp11998
Vgood
p11999
atp12000
a(Vportability
p12001
(lp12002
Vgreat
p12003
atp12004
a(Vcord length
p12005
(lp12006
Vlong
p12007
atp12008
a(Vhat size
p12009
(lp12010
Vscares
p12011
atp12012
a(Vcomplaint
p12013
(lp12014
Vonly
p12015
aVis
p12016
atp12017
a(Vprice point.If
p12018
(lp12019
Vhigher
p12020
atp12021
a(Vreduction feature
p12022
(lp12023
Vheadphones
p12024
atp12025
a(Vunits.One note
p12026
(lp12027
Vexpensive
p12028
atp12029
a(Vaudio
p12030
(lp12031
Vdynamic
p12032
atp12033
a(Vshape
p12034
(lp12035
Vperfect
p12036
atp12037
a(Vchatter
p12038
(lp12039
Vconstant
p12040
atp12041
a(Vfate
p12042
(lp12043
Vhave
p12044
atp12045
a(Vpoint
p12046
(lp12047
Vwhole
p12048
atp12049
a(Vstory
p12050
(lp12051
VLong
p12052
atp12053
a(Vresearch
p12054
(lp12055
Vmuch
p12056
atp12057
a(Vamazon
p12058
(lp12059
Vsold
p12060
atp12061
a(Vpackaging
p12062
(lp12063
Voriginal
p12064
atp12065
a(Vvolume control
p12066
(lp12067
Vhas
p12068
atp12069
a(Vbass sound
p12070
(lp12071
Vsolid
p12072
atp12073
a(Vprice.This noise
p12074
(lp12075
Vstandard
p12076
atp12077
a(Vstudent
p12078
(lp12079
Vcame
p12080
atp12081
a(Vitem
p12082
(lp12083
Vgood
p12084
atp12085
a(Vthat.I
p12086
(lp12087
Vhave
p12088
atp12089
a(Vamp
p12090
(lp12091
Vcancelling
p12092
atp12093
a(Vbargain
p12094
(lp12095
Vabsolute
p12096
atp12097
a(Vopinion
p12098
(lp12099
Vpositive
p12100
atp12101
a(Voverall.They
p12102
(lp12103
Vperformed
p12104
aVexcellent
p12105
aVeliminated
p12106
atp12107
a(Vpower
p12108
(lp12109
Velectric
p12110
atp12111
a(Vfidelity
p12112
(lp12113
Vsuperior
p12114
atp12115
a(Vquality product
p12116
(lp12117
Vhigher
p12118
atp12119
a(VSFO machine
p12120
(lp12121
Vvending
p12122
atp12123
a(Vnoise elimination
p12124
(lp12125
Vcomplete
p12126
atp12127
a(VNC
p12128
(lp12129
Venabled
p12130
atp12131
a(Vbase.When
p12132
(lp12133
Vputting
p12134
atp12135
a(Vneed
p12136
(lp12137
Vis
p12138
atp12139
a(VcompromiseFor
p12140
(lp12141
Vgreat
p12142
atp12143
a(V!!
p12144
(lp12145
Vgood
p12146
atp12147
a(Vfrequency noise
p12148
(lp12149
Vlow
p12150
aVis
p12151
atp12152
a(Vcancellation technology
p12153
(lp12154
Vworks
p12155
aVactive
p12156
aVrelies
p12157
atp12158
a(Vwiring connection
p12159
(lp12160
Vbad
p12161
atp12162
a(VMDR-NC6
p12163
(lp12164
Veliminate
p12165
atp12166
a(VWoW!These
p12167
(lp12168
Vcomfy
p12169
atp12170
a(Vbusiness trip
p12171
(lp12172
Vrecent
p12173
atp12174
a(Vmusic.Also
p12175
(lp12176
Vloud
p12177
atp12178
a(Vmm jack
p12179
(lp12180
Vlong
p12181
atp12182
a(VCD player
p12183
(lp12184
Vportable
p12185
atp12186
a(Vmonth
p12187
(lp12188
Vabout
p12189
atp12190
a(Vtight/heavy
p12191
(lp12192
Vlittle
p12193
atp12194
a(VShack salesman
p12195
(lp12196
Vtried
p12197
atp12198
a(Vlol
p12199
(lp12200
Venough
p12201
atp12202
a(Vsub market
p12203
(lp12204
Vdollar
p12205
aVlimited
p12206
atp12207
a(Vtick-tick
p12208
(lp12209
Vfaint
p12210
atp12211
a(Vreproduction
p12212
(lp12213
Vgreat
p12214
atp12215
a(Vcenter hinge
p12216
(lp12217
Vwas
p12218
atp12219
a(Vdistortion
p12220
(lp12221
Vis
p12222
atp12223
a(Vdrawback
p12224
(lp12225
Vonly
p12226
aVreal
p12227
aVis
p12228
atp12229
a(Vwind
p12230
(lp12231
Vhit
p12232
atp12233
a(Vone.However
p12234
(lp12235
Vregular
p12236
atp12237
a(VSOLD IN.There
p12238
(lp12239
Vtwo
p12240
atp12241
a(Vrelief
p12242
(lp12243
Vtemporary
p12244
atp12245
a(Vend pair
p12246
(lp12247
Vhigher
p12248
atp12249
a(Vnoise headphone
p12250
(lp12251
Vcancelling
p12252
atp12253
a(VEverything
p12254
(lp12255
Vaverage
p12256
atp12257
a(VSony NC7
p12258
(lp12259
Vgotten
p12260
atp12261
a(Vheating system
p12262
(lp12263
Vnoisy
p12264
aVcentral
p12265
aVquiet
p12266
atp12267
a(Vpocket change
p12268
(lp12269
Vpotential
p12270
aVmuch
p12271
atp12272
a(VBackground noise
p12273
(lp12274
Vsounds
p12275
aVlessens
p12276
atp12277
a(Vhead piece
p12278
(lp12279
Vuncomfortable
p12280
aVhard
p12281
aVplastic
p12282
atp12283
a(Vcoverage
p12284
(lp12285
Vactual
p12286
aVfull
p12287
atp12288
a(Vheadphone.I
p12289
(lp12290
Vcheap
p12291
aVbit
p12292
atp12293
a(Vvolume level.However
p12294
(lp12295
Vbetter
p12296
atp12297
a(Vheadphones.I
p12298
(lp12299
Vdo
p12300
atp12301
a(Vhead bar
p12302
(lp12303
Vplastic
p12304
atp12305
a(Vsound value
p12306
(lp12307
Vconstant
p12308
aVstandard
p12309
aVhigh
p12310
atp12311
a(Vcord
p12312
(lp12313
Vconnects
p12314
atp12315
a(Vcushion
p12316
(lp12317
Vfits
p12318
atp12319
a(Vbuzz
p12320
(lp12321
Vconstant
p12322
atp12323
a(Vthem.My complaint
p12324
(lp12325
Vbiggest
p12326
atp12327
a(Vfrequency
p12328
(lp12329
Vlow
p12330
atp12331
a(Vplus.I
p12332
(lp12333
Vreal
p12334
atp12335
a(Vsize
p12336
(lp12337
Vsmaller
p12338
atp12339
a(Vheadband
p12340
(lp12341
Vpushes
p12342
atp12343
a(Vsomething duty
p12344
(lp12345
Vheavy
p12346
atp12347
a(VBose Comfort
p12348
(lp12349
VQuiet
p12350
atp12351
a(VAC
p12352
(lp12353
Vloud
p12354
aVnoise
p12355
atp12356
a(Vfashion
p12357
(lp12358
Vuniversal
p12359
atp12360
a(Vbasis
p12361
(lp12362
Vdaily
p12363
atp12364
a(Vsilence
p12365
(lp12366
Vcomplete
p12367
atp12368
a(Vlaughingstock
p12369
(lp12370
Vmade
p12371
atp12372
a(Vhour
p12373
(lp12374
Vabout
p12375
atp12376
a(Vphones!Great quality
p12377
(lp12378
Vaudio
p12379
atp12380
a(Vfree.DesignThe design
p12381
(lp12382
Vclean
p12383
aVcontemporary
p12384
atp12385
a(Vbet
p12386
(lp12387
Vgood
p12388
atp12389
a(Vear bud
p12390
(lp12391
Vgive
p12392
aVcloser
p12393
atp12394
a(Vchange
p12395
(lp12396
Vsignificant
p12397
aVis
p12398
atp12399
a(VSony quality
p12400
(lp12401
Vdipped
p12402
atp12403
a(Vheadphone set
p12404
(lp12405
Vtype
p12406
atp12407
a(Vplane
p12408
(lp12409
Vprop
p12410
atp12411
a(Vaverage
p12412
(lp12413
Vabove
p12414
atp12415
a(Vflyer
p12416
(lp12417
Vfrequent
p12418
atp12419
a(Vimprovement
p12420
(lp12421
Vis
p12422
atp12423
a(Vbrand
p12424
(lp12425
Vskullcandy
p12426
atp12427
a(Vfoam padding
p12428
(lp12429
Vgood
p12430
atp12431
a(Vairplain noise
p12432
(lp12433
Vcancelling
p12434
atp12435
a(Vwire design
p12436
(lp12437
Vsingle
p12438
atp12439
a(Vheadphone jack
p12440
(lp12441
Vused
p12442
aVnormal
p12443
atp12444
a(VSony product
p12445
(lp12446
Vonly
p12447
atp12448
a(Vfeeling
p12449
(lp12450
Vuncomfortable
p12451
atp12452
a(Vreproduction quality
p12453
(lp12454
Vgood
p12455
atp12456
a(VJetBlue flight
p12457
(lp12458
Vrecent
p12459
atp12460
a(Vpadding
p12461
(lp12462
Vcame
p12463
atp12464
a(Vnoise technology
p12465
(lp12466
Vcanceling
p12467
atp12468
a(Vairport
p12469
(lp12470
Vbusy
p12471
atp12472
a(Vlakes
p12473
(lp12474
Vgreat
p12475
atp12476
a(Vprice muchg
p12477
(lp12478
Vlower
p12479
atp12480
a(Vcase
p12481
(lp12482
Vsold
p12483
atp12484
a(VSennheiser
p12485
(lp12486
Voverall
p12487
aVoffer
p12488
atp12489
a(Vdistinct.They
p12490
(lp12491
Vperform
p12492
atp12493
a(VToday
p12494
(lp12495
Vbrought
p12496
atp12497
a(Vcarpet ride
p12498
(lp12499
Vmagic
p12500
atp12501
a(Vroom.I
p12502
(lp12503
Vdifferent
p12504
atp12505
a(Vbag
p12506
(lp12507
Vnice
p12508
aVlittle
p12509
atp12510
a(Vblocker
p12511
(lp12512
Vbetter
p12513
atp12514
a(Vellipsoid
p12515
(lp12516
Voblate
p12517
atp12518
a(Vclarity
p12519
(lp12520
Vbetter
p12521
atp12522
a(Vhissing
p12523
(lp12524
Vstrong
p12525
atp12526
a(Vgirlfriend
p12527
(lp12528
VFormer
p12529
aVlost
p12530
atp12531
a(Vpain
p12532
(lp12533
Vtook
p12534
atp12535
a(Vlength.I
p12536
(lp12537
Vnormal
p12538
atp12539
a(Vup.You
p12540
(lp12541
Vdrop
p12542
atp12543
a(Vmove
p12544
(lp12545
Vwrong
p12546
atp12547
a(Vpremium.But
p12548
(lp12549
Vsmall
p12550
atp12551
a(Vkind
p12552
(lp12553
Vshort
p12554
atp12555
a(Vhelp
p12556
(lp12557
Vmuch
p12558
atp12559
a(Vguess
p12560
(lp12561
Vis
p12562
atp12563
a(Vreturn
p12564
(lp12565
Vdiminishing
p12566
atp12567
a(Vcanceling mode
p12568
(lp12569
Vuseless
p12570
atp12571
a(Vlistener cause
p12572
(lp12573
Vaverage
p12574
atp12575
a(VfitThey
p12576
(lp12577
Vcomfortable
p12578
atp12579
a(Vname
p12580
(lp12581
Vbetter
p12582
aVnoise
p12583
atp12584
a(Vbattery life.If
p12585
(lp12586
Vexcellent
p12587
atp12588
a(Vplastic holder
p12589
(lp12590
Vcheap
p12591
atp12592
a(Vtax
p12593
(lp12594
Vlocal
p12595
atp12596
a(Vanyone
p12597
(lp12598
Vwas
p12599
atp12600
a(Vdecibel
p12601
(lp12602
Vlow
p12603
atp12604
a(Vrun.UPDATE
p12605
(lp12606
Vlong
p12607
atp12608
a(Vconcern
p12609
(lp12610
Vprimary
p12611
atp12612
a(V.2
p12613
(lp12614
Vheavy
p12615
atp12616
a(Vwarranty
p12617
(lp12618
Vexpired
p12619
atp12620
a(Vgift
p12621
(lp12622
Vuse
p12623
atp12624
a(Vpacket
p12625
(lp12626
Vsmall
p12627
atp12628
a(Vwhite-noise sound
p12629
(lp12630
Vdistinct
p12631
aVhissing
p12632
aVis
p12633
aVreminiscent
p12634
atp12635
a(Vnoise feature
p12636
(lp12637
Vcanceling
p12638
atp12639
a(Vsound feature
p12640
(lp12641
Vcanceling
p12642
atp12643
a(Vtreble
p12644
(lp12645
Vclear
p12646
atp12647
a(Vheating system.Unfortunately
p12648
(lp12649
Vforced
p12650
atp12651
a(Vfrequency range
p12652
(lp12653
Veffective
p12654
aVincluded
p12655
atp12656
a(Vmusic reproduction
p12657
(lp12658
Vwhole
p12659
atp12660
a(Vbudget
p12661
(lp12662
Vstrict
p12663
atp12664
a(Vheater
p12665
(lp12666
Vis
p12667
atp12668
a(Vpurchase
p12669
(lp12670
VExcellent
p12671
atp12672
a(VNoise cancelling
p12673
(lp12674
Vworks
p12675
atp12676
a(Voption
p12677
(lp12678
Vcheap
p12679
aVcancelling
p12680
atp12681
a(Vchoice.The caveat
p12682
(lp12683
Vsuperb
p12684
aVbig
p12685
atp12686
a(Vaircrew headset
p12687
(lp12688
Vgood
p12689
atp12690
a(Vforce
p12691
(lp12692
Vphysical
p12693
atp12694
a(Vairplane headphone
p12695
(lp12696
Vprong
p12697
atp12698
a(Vtape
p12699
(lp12700
Vblank
p12701
atp12702
aL129L
tp12703
s.